(dp1
(S'E'
I8
tp2
(lp3
(S'G?_ODAo?????'
(ttp4
a(S'G@?GDA?K????'
(ttp5
a(S'G?OgR??O????'
(ttp6
a(S'G?_kS???@???'
(ttp7
a(S'G?_OY??C@???'
(ttp8
a(S'G?_CW?_S????'
(ttp9
a(S'G?OGCA_C@???'
(ttp10
a(S'G?_KW??S????'
(ttp11
a(S'G?_KX??O????'
(ttp12
a(S'G?PGI??C?@??'
(ttp13
a(S'G?PGI??S????'
(ttp14
a(S'G?_CCB?CA???'
(ttp15
a(S'G?_CC?bCG??O'
(ttp16
a(S'G?OG?@P?a??_'
(ttp17
a(S'G?OW??A?GCO?'
(ttp18
a(S'G?Og???COH??'
(ttp19
a(S'G?oo????PG??'
(ttp20
a(S'G?QK?@@?I???'
(ttp21
a(S'G?O_Q@?K????'
(ttp22
a(S'G?OOI??C@C??'
(ttp23
a(S'G?_cU???@???'
(ttp24
a(S'G?os????OG??'
(ttp25
a(S'G?OGO?OOB??_'
(ttp26
a(S'G?OGQ?OO@??_'
(ttp27
a(S'G?OOQ??C@A??'
(ttp28
a(S'G?`?I?OC???O'
(ttp29
a(S'G?OKG@?CA???'
(ttp30
a(S'G?OGH@_?@???'
(ttp31
a(S'GD?g????@GO?'
(ttp32
a(S'G?_OW??CB???'
(ttp33
a(S'G?PK??AGG@??'
(ttp34
a(S'G?__R??O@???'
(ttp35
a(S'GD?k????@G??'
(ttp36
a(S'G@?GDA_???O?'
(ttp37
a(S'G?OOE?p??A?_'
(ttp38
a(S'G?`?G?OW@???'
(ttp39
a(S'GC?GB@O?G???'
(ttp40
a(S'G?OK?@@?i???'
(ttp41
a(S'G@@g???C@G??'
(ttp42
a(S'G?P???aKG@??'
(ttp43
a(S'G@@G???C@I??'
(ttp44
a(S'G?Qc??_GO@??'
(ttp45
a(S'G?OK?@BGG@??'
(ttp46
a(S'GC?GB@??H???'
(ttp47
a(S'G?pCI??????O'
(ttp48
a(S'GC_???ACGOOO'
(ttp49
a(S'G?_gS???@?O?'
(ttp50
a(S'G?`O???C`A??'
(ttp51
a(S'GE??@??Ha?OO'
(ttp52
a(S'G?`_???C`@??'
(ttp53
a(S'GAOK????OH??'
(ttp54
a(S'GK????OOAQO?'
(ttp55
a(S'GCo???ACGO?O'
(ttp56
a(S'G?`_???C_@O?'
(ttp57
a(S'G?`S???C_A??'
(ttp58
a(S'G?OcQ???@@??'
(ttp59
a(S'G?O?B?d?g@??'
(ttp60
a(S'G?_K?@@?`??_'
(ttp61
a(S'G?O_K?_?A?PO'
(ttp62
a(S'GA??@?oHo??O'
(ttp63
a(S'GAO???a@P@?G'
(ttp64
a(S'G@PG???C?I??'
(ttp65
a(S'G?PG??AKG@??'
(ttp66
a(S'G?_CY??O@???'
(ttp67
a(S'G?O_Q??SA???'
(ttp68
a(S'G?OKCA_?@???'
(ttp69
a(S'G@Pg???C?G??'
(ttp70
a(S'G?Oo??OC_C?G'
(ttp71
a(S'G?P???Q?H@?G'
(ttp72
a(S'G?P?@?OOAI??'
(ttp73
a(S'G@@G??O?@G?_'
(ttp74
a(S'G?OcE???@C??'
(ttp75
a(S'G?OOEA_?@???'
(ttp76
a(S'G?P???qGG@??'
(ttp77
a(S'G?`?G@?K@???'
(ttp78
a(S'G?a_?@_O@?P?'
(ttp79
a(S'G?OGH@O?A???'
(ttp80
a(S'G?O?@OaGW@??'
(ttp81
a(S'G?`C???KG@A?'
(ttp82
a(S'G?`?D?O?A??_'
(ttp83
a(S'G?oc????_@@?'
(ttp84
a(S'G?Og??aCO@??'
(ttp85
a(S'G?OGQ@??G?O?'
(ttp86
a(S'G?O?AAC?p@?G'
(ttp87
a(S'G?O???cCoB??'
(ttp88
a(S'G?o???A?OACO'
(ttp89
a(S'G?_K??QCW??O'
(ttp90
a(S'G?__Q??C@@??'
(ttp91
a(S'G?OOEA?C???G'
(ttp92
a(S'G?_cQ??O??O?'
(ttp93
a(S'G?Q?B@@?I???'
(ttp94
a(S'G?_o?@a?@?P?'
(ttp95
a(S'G?_S??@?_AO?'
(ttp96
a(S'G?O?AG?P@E??'
(ttp97
a(S'G?_CCA?SA?@?'
(ttp98
a(S'G?__C?P?@@Ag'
(ttp99
a(S'G?O??O?KGK?O'
(ttp100
a(S'G?O_Q??CA?OO'
(ttp101
a(S'G?OG@?q?O??o'
(ttp102
a(S'G?_CO?_CG@?O'
(ttp103
a(S'G?OGP??OB??_'
(ttp104
a(S'G?`???OKG?AO'
(ttp105
a(S'G@?GO?OG?@O_'
(ttp106
a(S'G?O_A?`C_@??'
(ttp107
a(S'G?Q?C@`C?A?G'
(ttp108
a(S'GA?G??OC_D??'
(ttp109
a(S'G@O???`@?IO?'
(ttp110
a(S'GGo??@@?HO??'
(ttp111
a(S'G?QO??OCGC?G'
(ttp112
a(S'G?P???OGHH??'
(ttp113
a(S'G?OGG?OCO@??'
(ttp114
a(S'G@AG??O?@C?_'
(ttp115
a(S'GA_?@?O?OW?O'
(ttp116
a(S'G?_?@@A@B?@_'
(ttp117
a(S'G?OKO?OOAA??'
(ttp118
a(S'G?PK???O_A??'
(ttp119
a(S'GE_?@??C_O?O'
(ttp120
a(S'G?OKG@?G@?@?'
(ttp121
a(S'G?OGQ?OO???_'
(ttp122
a(S'G?_g??OCO?AO'
(ttp123
a(S'G?O??@A?ISO?'
(ttp124
a(S'G?OOU??C?A?G'
(ttp125
a(S'G?OOAB?C???G'
(ttp126
a(S'G?OKCAO?A???'
(ttp127
a(S'G?`CI??C???O'
(ttp128
a(S'G?QG?@@KG??O'
(ttp129
a(S'G?Oo???G_CO?'
(ttp130
a(S'G?P?I?_S????'
(ttp131
a(S'GA?O??OCAK??'
(ttp132
a(S'G@?K??@CGG??'
(ttp133
a(S'G?OG@?`Cg??O'
(ttp134
a(S'G?OGQ?OO?A??'
(ttp135
a(S'G@?c??O?ACAG'
(ttp136
a(S'G?_c??OGO?AO'
(ttp137
a(S'G?OC??aHW@??'
(ttp138
a(S'G?OOEA?C??@G'
(ttp139
a(S'G?OOEA_C??P?'
(ttp140
a(S'GC??@?OOAY??'
(ttp141
a(S'G?_C@@b?G??O'
(ttp142
a(S'G?OKA@B?G@??'
(ttp143
a(S'G?_W?GPO@??_'
(ttp144
a(S'G?__@?P?a?OO'
(ttp145
a(S'GC????Q?AQOO'
(ttp146
a(S'GG_??@@?HOO?'
(ttp147
a(S'G?_OT??C?A?G'
(ttp148
a(S'G?p?C?O?A??_'
(ttp149
a(S'G?P?G?OOA??G'
(ttp150
a(S'G?OCA?d?g@??'
(ttp151
a(S'G?OGA@@?`??_'
(ttp152
a(S'GAOW??_??GP?'
(ttp153
a(S'G?`CI???@@??'
(ttp154
a(S'GAO?A?o@o@??'
(ttp155
a(S'G?PG???CGH??'
(ttp156
a(S'G@?c??O?AK??'
(ttp157
a(S'G?_KC@@CG?A?'
(ttp158
a(S'G?O?BACGo@??'
(ttp159
a(S'GK????cCI?OO'
(ttp160
a(S'GC??B?cCg??O'
(ttp161
a(S'G@_??OPG_?O_'
(ttp162
a(S'G?O?@?`C_Q?O'
(ttp163
a(S'G?QG??OGO?Oo'
(ttp164
a(S'G?OO@?Q?GC?G'
(ttp165
a(S'G?PO???CGG?G'
(ttp166
a(S'GA_C@???_O@O'
(ttp167
a(S'G@?_??_CAGP?'
(ttp168
a(S'G@??@?P?AW?_'
(ttp169
a(S'G?P?A@?W??Q_'
(ttp170
a(S'G?`?G?OG@@??'
(ttp171
a(S'G?O_???CPH?G'
(ttp172
a(S'G?PCI???A?OO'
(ttp173
a(S'G?O_O?OGA?OO'
(ttp174
a(S'G@?g??_?@?R?'
(ttp175
a(S'G??C@AG?oP?G'
(ttp176
a(S'G?_?@@E?@@@g'
(ttp177
a(S'G?OOAGCKGC?O'
(ttp178
a(S'G?O?G@C?`C?G'
(ttp179
a(S'G???@ACA@L?G'
(ttp180
a(S'GCO????G_@C_'
(ttp181
a(S'G?PK???Gg@??'
(ttp182
a(S'G?O??G?GWPO?'
(ttp183
a(S'G?OG?@@?_AO?'
(ttp184
a(S'G?O_B??CO@??'
(ttp185
a(S'GCo????O_AC?'
(ttp186
a(S'G?OKH???O@??'
(ttp187
a(S'G@O???QD?E?G'
(ttp188
a(S'G?QC?@@?I??G'
(ttp189
a(S'G?P?I?OO???G'
(ttp190
a(S'G?pC???GG@A?'
(ttp191
a(S'G?PO???Ga?O_'
(ttp192
a(S'G??CGG@JA?OO'
(ttp193
a(S'G?_?GG@D@@??'
(ttp194
a(S'G?QG??OKW??O'
(ttp195
a(S'G?O?@?`?_R??'
(ttp196
a(S'G?_C@@AOBC?_'
(ttp197
a(S'G?O?@AC?PH?G'
(ttp198
a(S'G?_?@?`Cg?CO'
(ttp199
a(S'G?OGA@@?g?O?'
(ttp200
a(S'G?OGP??OBA??'
(ttp201
a(S'G?_C??q?OA?O'
(ttp202
a(S'G?OG?A?Wo?O?'
(ttp203
a(S'G?OGO?OSAA??'
(ttp204
a(S'G?OGH?O?O@??'
(ttp205
a(S'G?__@??C_@@?'
(ttp206
a(S'G?OKQ??O???_'
(ttp207
a(S'G?P_@??G_??W'
(ttp208
a(S'G?_??OACGCOO'
(ttp209
a(S'G@?G??Q?OAO?'
(ttp210
a(S'G?o_Q??C???O'
(ttp211
a(S'G@?GAGPO@??_'
(ttp212
a(S'G?OGG@OCA???'
(ttp213
a(S'G?`???OKG@A?'
(ttp214
a(S'GA?K???C_@@?'
(ttp215
a(S'G?QC??OOAE??'
(ttp216
a(S'G?OGW?OO???G'
(ttp217
a(S'G?PC??A?H@?G'
(ttp218
a(S'G?OKDA_?????'
(ttp219
a(S'G@PG??O??G?_'
(ttp220
a(S'G?_ODA?CA?@?'
(ttp221
a(S'G?OS??A?GC?G'
(ttp222
a(S'G??C@A?H?k?O'
(ttp223
a(S'G???@_A?ASOo'
(ttp224
a(S'G?_?@?S?_E?O'
(ttp225
a(S'G?OKP??OAA??'
(ttp226
a(S'GC????OGHPA?'
(ttp227
a(S'G@QG??O??C?_'
(ttp228
a(S'G?OGW??OA?O?'
(ttp229
a(S'G?PC???GHH??'
(ttp230
a(S'G?O???aCWP??'
(ttp231
a(S'G?o???Q?OQ?O'
(ttp232
a(S'GCOGA?ADG@??'
(ttp233
a(S'G?_c?@A?@@@G'
(ttp234
a(S'G?QG??oOO??_'
(ttp235
a(S'G?P?C?aKG??O'
(ttp236
a(S'GCO?A?CGh@??'
(ttp237
a(S'G?OSGG@OAO?G'
(ttp238
a(S'G?_OO?oCG??O'
(ttp239
a(S'G?_?CGC?PAO?'
(ttp240
a(S'G?Q?@?_GO@O_'
(ttp241
a(S'G?O?@O@CGG?W'
(ttp242
a(S'G?P???QGG@?G'
(ttp243
a(S'GC????S?H@AG'
(ttp244
a(S'G?OW??P?_??g'
(ttp245
a(S'G?_c??O?_D??'
(ttp246
a(S'G?OoA?@?A?QO'
(ttp247
a(S'G??G@?qBO@?_'
(ttp248
a(S'GC??@?a@I?OO'
(ttp249
a(S'GG??@A?GPP??'
(ttp250
a(S'GC?C??OOAQA?'
(ttp251
a(S'GA_?@??C_O@O'
(ttp252
a(S'G?o_Q??C?@??'
(ttp253
a(S'G?OGQ@??H???'
(ttp254
a(S'G?_ODA?CA???'
(ttp255
a(S'GA?K???COH??'
(ttp256
a(S'G?O_P??G@@?G'
(ttp257
a(S'G?P?@@?SAI?G'
(ttp258
a(S'G?_O@@A?B?@_'
(ttp259
a(S'G?OOQ??C?A?W'
(ttp260
a(S'G?`???OG_@O_'
(ttp261
a(S'G?Q?@@@?I??G'
(ttp262
a(S'G?OO@?a?O??g'
(ttp263
a(S'G?_OW??CA?O?'
(ttp264
a(S'G?__Q??O@?O?'
(ttp265
a(S'G@?G??QCOA??'
(ttp266
a(S'G?OOGG@GAOOO'
(ttp267
a(S'G?OOA@CGGCQ?'
(ttp268
a(S'G@?G@@AG@?P_'
(ttp269
a(S'G?_CC@@?BAA?'
(ttp270
a(S'G?O?A@COAEQ?'
(ttp271
a(S'G@?CC?cG?GP_'
(ttp272
a(S'G?O_AB??ACQO'
(ttp273
a(S'G?O?@A?OaS??'
(ttp274
a(S'G?_O??aCG?P?'
(ttp275
a(S'G?_?@?q?O?Co'
(ttp276
a(S'G?`C???KG?AO'
(ttp277
a(S'G?OGH@?G@?@?'
(ttp278
a(S'G?OK@?a?O@?_'
(ttp279
a(S'G?_KO?OO?A??'
(ttp280
a(S'G?OKQ??O@??_'
(ttp281
a(S'G?o_??OGO?AO'
(ttp282
a(S'G@?SA?QC?E?G'
(ttp283
a(S'G?O_@?_G_?@O'
(ttp284
a(S'G???OOAE@B?G'
(ttp285
a(S'GCO????OBQA?'
(ttp286
a(S'G?P_A??OA?QO'
(ttp287
a(S'G?_??OQCOA?O'
(ttp288
a(S'G?_W??PO@?A_'
(ttp289
a(S'G?_C??q?O??o'
(ttp290
a(S'G?Oo???COG?G'
(ttp291
a(S'G?OS??@?AI??'
(ttp292
a(S'G@?GD?v??A?_'
(ttp293
a(S'G@?GC?`?@AQ?'
(ttp294
a(S'GA?G??_D?HP?'
(ttp295
a(S'G?P?@?_Kg??O'
(ttp296
a(S'GCO?@??OAY??'
(ttp297
a(S'GCO???C?H@AG'
(ttp298
a(S'G??C?G`BAAOO'
(ttp299
a(S'G?`O???G`?O_'
(ttp300
a(S'G?PC??AGG@?G'
(ttp301
a(S'G?_C?A?Wp???'
(ttp302
a(S'G@?GG?_S??P?'
(ttp303
a(S'G?`S???G_?O_'
(ttp304
a(S'G?p???OGG@A?'
(ttp305
a(S'G?OGO?OS?A?G'
(ttp306
a(S'G?o?@?C?_A@O'
(ttp307
a(S'G??P??`?`aO?'
(ttp308
a(S'G?Og??Q?Q?OO'
(ttp309
a(S'GA??@?`@a?OO'
(ttp310
a(S'G?O?A?`@`B??'
(ttp311
a(S'G?OG?@P?_??g'
(ttp312
a(S'G?OG??Q?Y?OO'
(ttp313
a(S'G????O?G_@X_'
(ttp314
a(S'G?_C??@Kg??O'
(ttp315
a(S'G?OGO?OOBA??'
(ttp316
a(S'G?PW???G_?O_'
(ttp317
a(S'G?OC@?`@?I?O'
(ttp318
a(S'G?PW???C_A??'
(ttp319
a(S'G?_CBPAO@?@_'
(ttp320
a(S'GE?CA??H_?OO'
(ttp321
a(S'GA?oA?O?Q?QO'
(ttp322
a(S'GC?CB?a@G??O'
(ttp323
a(S'GAOC??a@O@?G'
(ttp324
a(S'G?_K@@@?_??_'
(ttp325
a(S'GCOC???OAQA?'
(ttp326
a(S'G???AG?D?EGO'
(ttp327
a(S'G?OO?A?GOGO?'
(ttp328
a(S'G?_ODA_C??P?'
(ttp329
a(S'G?a_??OCQ?OO'
(ttp330
a(S'G?_C?@@Gh???'
(ttp331
a(S'GCO???A?AQOO'
(ttp332
a(S'G?OC?G@HG@?G'
(ttp333
a(S'G?QG?@`CG??O'
(ttp334
a(S'GCO?A??T_A?G'
(ttp335
a(S'G@?S??cG?GP_'
(ttp336
a(S'G?_CC@`CG?A?'
(ttp337
a(S'G?O?AG?TOA?G'
(ttp338
a(S'G???@O@E_B?G'
(ttp339
a(S'G???AGGCGSOO'
(ttp340
a(S'G?QC??_GG@@?'
(ttp341
a(S'G?OOEOACOA?G'
(ttp342
a(S'GAO?A?O?_DCG'
(ttp343
a(S'G?_CGG@DA?OO'
(ttp344
a(S'G?OCA?`@g@??'
(ttp345
a(S'G?_?EP@?H?Q?'
(ttp346
a(S'G?P???OGg@?G'
(ttp347
a(S'G?OOS??CAA?G'
(ttp348
a(S'GK????OP@A?G'
(ttp349
a(S'G?Q_??OGQ?OO'
(ttp350
a(S'G?OG@?q?W??O'
(ttp351
a(S'G?OOEA?G??P?'
(ttp352
a(S'G?PO@?AOAA?G'
(ttp353
a(S'G?__E@@?@?Q?'
(ttp354
a(S'G?O?CO`OBAA?'
(ttp355
a(S'G?_?@?q?O@C_'
(ttp356
a(S'G?????QAOQ?W'
(ttp357
a(S'G?P?A@_CG???'
(ttp358
a(S'G@?GDA?G??P?'
(ttp359
a(S'G?o??ACCOG?O'
(ttp360
a(S'G?OCGG?GOP??'
(ttp361
a(S'G@??@?SC_E?G'
(ttp362
a(S'GC??A?SGg@O?'
(ttp363
a(S'G?_C??aCW@??'
(ttp364
a(S'GE??@??D@H?G'
(ttp365
a(S'G@_???C?O?Q_'
(ttp366
a(S'GCO?B?CGg@??'
(ttp367
a(S'G?OG??Q?OB??'
(ttp368
a(S'G?og??O?O?AO'
(ttp369
a(S'G@?C@?P@?I?G'
(ttp370
a(S'G?O_@?`?_@?G'
(ttp371
a(S'G?_G@@EO@?@_'
(ttp372
a(S'G?Q?C?_SAA@?'
(ttp373
a(S'G?OOAA?K??@O'
(ttp374
a(S'G?O???c?PJ??'
(ttp375
a(S'G@??@?`?_QO?'
(ttp376
a(S'GC??C?cW@?Q_'
(ttp377
a(S'G?_C@@AGG@@?'
(ttp378
a(S'GC_CC?CW@?A_'
(ttp379
a(S'G??CAG?Z?CO_'
(ttp380
a(S'G?O?A@EOBA@?'
(ttp381
a(S'G?OGGG@OA?SO'
(ttp382
a(S'G??`?@AE@C?G'
(ttp383
a(S'GCOGB?A@G@??'
(ttp384
a(S'G?QO??_SAA@?'
(ttp385
a(S'G@?GG?OGO?OO'
(ttp386
a(S'G?OCCGC?Q??g'
(ttp387
a(S'G?_OS??C@A?G'
(ttp388
a(S'G?_CCAO??C?W'
(ttp389
a(S'G?O_??_Ko@??'
(ttp390
a(S'G@?G@?p?_A?o'
(ttp391
a(S'G?OO??a?I?P?'
(ttp392
a(S'G?_G?@BCG?SO'
(ttp393
a(S'GB????O?`S?G'
(ttp394
a(S'GC_?C?CW@?Q_'
(ttp395
a(S'G@?cA???ACQ?'
(ttp396
a(S'G?PCI???@@?G'
(ttp397
a(S'G?_c??O?Q?AO'
(ttp398
a(S'GAO?@??@?H@G'
(ttp399
a(S'G?_C??@Ci??O'
(ttp400
a(S'G?OG??a?W@O?'
(ttp401
a(S'G?_c??Q?Q?OO'
(ttp402
a(S'G????GC?@BHG'
(ttp403
a(S'GC_CC?COB?A_'
(ttp404
a(S'G?OW??`?_?O_'
(ttp405
a(S'G?aO??OCGE?W'
(ttp406
a(S'G?P?B?_O_??_'
(ttp407
a(S'GGO??@@?BQ??'
(ttp408
a(S'G?_?@?@?i?SO'
(ttp409
a(S'G?O???QCOQ?W'
(ttp410
a(S'G?OGO?OW??O_'
(ttp411
a(S'G?Oc????PH?G'
(ttp412
a(S'GA?????C`P@G'
(ttp413
a(S'G?OS??Q?GC?G'
(ttp414
a(S'G?P???OOBI??'
(ttp415
a(S'G?OG??P?`@?g'
(ttp416
a(S'G?O???`D?I?O'
(ttp417
a(S'G?OG@?a?P@?_'
(ttp418
a(S'G??C??`D?aAO'
(ttp419
a(S'G?OGP??SAA??'
(ttp420
a(S'G?P?A@?CG??G'
(ttp421
a(S'G?O_P??GA?OO'
(ttp422
a(S'G?_c@???_@@?'
(ttp423
a(S'G??C@@AA?U?G'
(ttp424
a(S'G??G@_S?qA?O'
(ttp425
a(S'G??C??aJ??Po'
(ttp426
a(S'G???O?_P?AY?'
(ttp427
a(S'GA????OC`T?G'
(ttp428
a(S'G?QC??_COB?G'
(ttp429
a(S'G?P?G?OG@@?G'
(ttp430
a(S'G?_C??P@A?Ao'
(ttp431
a(S'G?_C??Q?Q??o'
(ttp432
a(S'G?OG??@?i?OO'
(ttp433
a(S'G?`???OC`B?G'
(ttp434
a(S'G?O?AOg?o@O_'
(ttp435
a(S'G?Q?A@@CI??O'
(ttp436
a(S'GCO?A?CGg@O?'
(ttp437
a(S'G?_?@?cCg?PO'
(ttp438
a(S'GA?CA?`@_?OO'
(ttp439
a(S'G??CGG@E@P?G'
(ttp440
a(S'G?_?@ACCOG?O'
(ttp441
a(S'G?OO@@`C?I?G'
(ttp442
a(S'G?P_@??G_@?G'
(ttp443
a(S'G?_K@@AO@?@_'
(ttp444
a(S'G?P?@?a?I??O'
(ttp445
a(S'G?Og@?@?_@?G'
(ttp446
a(S'G??`?_QGQ?OO'
(ttp447
a(S'GAO?A?_?O@U?'
(ttp448
a(S'GC_CE?CO@?Q_'
(ttp449
a(S'G?OKCGCOAE??'
(ttp450
a(S'G?OGBOA?W@??'
(ttp451
a(S'G?QGC?p@G@?_'
(ttp452
a(S'G??E?GPHA?Oo'
(ttp453
a(S'GG_??ACCQ?OO'
(ttp454
a(S'G?_?@@eO@?@_'
(ttp455
a(S'GA?GPB??a?SO'
(ttp456
a(S'G?O?A@@D_A?G'
(ttp457
a(S'G???CO@E@I?G'
(ttp458
a(S'G?OG?H@?I?SO'
(ttp459
a(S'GAACAB??@P@G'
(ttp460
a(S'G@?G@@a?@A@?'
(ttp461
a(S'G?_?@AS?QG?O'
(ttp462
a(S'G???A?Q?O_Co'
(ttp463
a(S'G?OCA?q@OA?O'
(ttp464
a(S'G?O?@?aHO@O_'
(ttp465
a(S'G??C?AG?PPAG'
(ttp466
a(S'GK?C??OP?A?G'
(ttp467
a(S'GE?OA??CAOQO'
(ttp468
a(S'G?O?AO`A_AOO'
(ttp469
a(S'G?QG?@?W@?@_'
(ttp470
a(S'G?O_Q??CA??O'
(ttp471
a(S'G?OO??P?AI??'
(ttp472
a(S'GA??@?oGo?CO'
(ttp473
a(S'G?P?@@AOAA?G'
(ttp474
a(S'G?O?@GCGW@?G'
(ttp475
a(S'G@?C??c?AGPo'
(ttp476
a(S'G?OCGG@IAO?O'
(ttp477
a(S'G?OGCGC?Q?O_'
(ttp478
a(S'G?__@@A?@@@G'
(ttp479
a(S'G??GGG@EA?SO'
(ttp480
a(S'G?OK??a?O@?_'
(ttp481
a(S'G?O??A?L?K?O'
(ttp482
a(S'G?_c????P@AG'
(ttp483
a(S'G?O_??_Oa?P?'
(ttp484
a(S'G?O_??_Gp@??'
(ttp485
a(S'G?PO???GGGO?'
(ttp486
a(S'G?_??A?D?CAO'
(ttp487
a(S'G?O?AGSOAE?O'
(ttp488
a(S'G?_C@@`?gA?O'
(ttp489
a(S'G??A@O`?aAOO'
(ttp490
a(S'G@?CA?QD?E?G'
(ttp491
a(S'G?OCCGG?PQ?G'
(ttp492
a(S'G?_C@?a@G?PO'
(ttp493
a(S'G@?C@?aH??P_'
(ttp494
a(S'GE?C@??C_P?G'
(ttp495
a(S'G?_C@AC?OG?O'
(ttp496
a(S'G?O?@?`@?I?O'
(ttp497
a(S'G?OG@?q?O@?_'
(ttp498
a(S'G?OOA?AOBEC?'
(ttp499
a(S'G?_O@?PO@G?g'
(ttp500
a(S'G?_GGG@D??OO'
(ttp501
a(S'G?PC???O_A?G'
(ttp502
a(S'G???@AC?Ph?G'
(ttp503
a(S'G?_??@@@??Q_'
(ttp504
a(S'G?Q?@?_COB?G'
(ttp505
a(S'G?OCA?c?_@P_'
(ttp506
a(S'G?QC??_GO@O_'
(ttp507
a(S'GA??A?_CO@U?'
(ttp508
a(S'G?OCAACGo@??'
(ttp509
a(S'GA?OA?P?AOQo'
(ttp510
a(S'G?O?@A?PAK??'
(ttp511
a(S'G?O?AACAQ?QO'
(ttp512
a(S'G?OGGG@J??OO'
(ttp513
a(S'G?OCCGCOQA?G'
(ttp514
a(S'G?OC?A?I?SAO'
(ttp515
a(S'G??C?A?L?cAO'
(ttp516
a(S'G@O?A?QD?E?G'
(ttp517
a(S'G?PG@??G_??o'
(ttp518
a(S'G?O?@GC?HD?G'
(ttp519
a(S'G?OCGG@HA?OO'
(ttp520
a(S'G@_???PH??Q_'
(ttp521
a(S'G??GC`c?@AR?'
(ttp522
a(S'GA?C??_H?GPO'
(ttp523
a(S'G??C?G@JA?Oo'
(ttp524
a(S'G?OOA@QC?E?G'
(ttp525
a(S'G?_OP??C?B?G'
(ttp526
a(S'G?PC???OBI??'
(ttp527
a(S'G?P?@?_G_?Oo'
(ttp528
a(S'G?OO??P?GG?G'
(ttp529
a(S'G?_C@?A@?A@O'
(ttp530
a(S'G??CA?`F?AAO'
(ttp531
a(S'G?_?@OP?a?Oo'
(ttp532
a(S'G?OG@@BGG@?_'
(ttp533
a(S'G?O?A?`@_@O_'
(ttp534
a(S'G?o?@?a?O@C_'
(ttp535
a(S'G?O???AOQQO?'
(ttp536
a(S'GBO???O?_S?G'
(ttp537
a(S'G@??AOPG_?O_'
(ttp538
a(S'G?_O??a?H?P?'
(ttp539
a(S'G?OG?@@Gg?O?'
(ttp540
a(S'G?_CA?Q?O??o'
(ttp541
a(S'G?O??@@?_O?g'
(ttp542
a(S'GCO????GHPA?'
(ttp543
a(S'GAOW??_???R?'
(ttp544
a(S'G?_?@?PH_?Oo'
(ttp545
a(S'G?O?@?a@O@?g'
(ttp546
a(S'G?PC???Gg@?G'
(ttp547
a(S'G?P???OO_A?G'
(ttp548
a(S'G@????QCGS?G'
(ttp549
a(S'GE??@??Ga?SO'
(ttp550
a(S'G?O_A@@?A?QO'
(ttp551
a(S'GC?CA@CW??Q_'
(ttp552
a(S'GOO?AA_Op@?_'
(ttp553
a(S'G?OGQA?P`@?_'
(ttp554
a(S'G?_CEO@O@?A_'
(ttp555
a(S'G??GE_@O@?U_'
(ttp556
a(S'G?OGAOACW@??'
(ttp557
a(S'G?OGAGW@O@?_'
(ttp558
a(S'G?_?CACC@@BG'
(ttp559
a(S'G?OGBAA@?@@?'
(ttp560
a(S'G?_?GGS?Q?OO'
(ttp561
a(S'GC????OOBQA?'
(ttp562
a(S'G@?G@Ao?O??O'
(ttp563
a(S'G?_CCAOG?D??'
(ttp564
a(S'G?????Q?QQGO'
(ttp565
a(S'GE?G@??D@H?G'
(ttp566
a(S'G?O?@GCGG@@G'
(ttp567
a(S'G?`???OGH@A?'
(ttp568
a(S'G@?_??_CA?R?'
(ttp569
a(S'GC??@?cCi??O'
(ttp570
a(S'G?OGCGCSAE??'
(ttp571
a(S'G?_KC@@?@?A_'
(ttp572
a(S'GAO?A@C?ACQO'
(ttp573
a(S'GCO?A?A@H@?G'
(ttp574
a(S'GGO??A?GPP??'
(ttp575
a(S'G?O?@?aHW@??'
(ttp576
a(S'G?PG???G_?Oo'
(ttp577
a(S'GC_????C_ACO'
(ttp578
a(S'G?OGP??S?A?G'
(ttp579
a(S'G?OOA@C?AEQ?'
(ttp580
a(S'G?O?A?`@G@Q?'
(ttp581
a(S'G?QO??OSAE?G'
(ttp582
a(S'G?`C???G_@O_'
(ttp583
a(S'G?OOA@a?@AD?'
(ttp584
a(S'G?Q?@?_GG@@?'
(ttp585
a(S'G?_CCO@OB?A_'
(ttp586
a(S'G?_CC?QCWO?W'
(ttp587
a(S'G?O?AOGGO@Q_'
(ttp588
a(S'G?_C@?a@G?@O'
(ttp589
a(S'G?O_@@?GHH@G'
(ttp590
a(S'G?_CA@AO@?@_'
(ttp591
a(S'GA_?@?o?o?CO'
(ttp592
a(S'G@O?A?`D?AA?'
(ttp593
a(S'G?O?AA?PQ?Q?'
(ttp594
a(S'G???@_SCOI?W'
(ttp595
a(S'G?_?CAcO@?R?'
(ttp596
a(S'G???AOPI_@O_'
(ttp597
a(S'GC?CC?cOB?A_'
(ttp598
a(S'G?P?@?_C_A?W'
(ttp599
a(S'G?OCA?c?_@@_'
(ttp600
a(S'G?O_K?_?P@?G'
(ttp601
a(S'G@O???aH??P_'
(ttp602
a(S'G?_CC@@?H?AG'
(ttp603
a(S'G?OCC@Q?IS?G'
(ttp604
a(S'G?_?@?a@?@P_'
(ttp605
a(S'G@?GC?`?@?Q_'
(ttp606
a(S'G?OOA?Q?@F?G'
(ttp607
a(S'G???@?S?_e?W'
(ttp608
a(S'G??GB_S?oA?O'
(ttp609
a(S'GC?CE@CG@?Q_'
(ttp610
a(S'G?OG??cA?IPO'
(ttp611
a(S'GAOGA???_DS?'
(ttp612
a(S'GC?CAA?O`@?g'
(ttp613
a(S'G???AAW?QOQO'
(ttp614
a(S'GB?G?@_?@GT?'
(ttp615
a(S'G???O_SCGG?W'
(ttp616
a(S'G?_CCA?CA?OO'
(ttp617
a(S'G?__???CP@AG'
(ttp618
a(S'GC?GA?QDG@??'
(ttp619
a(S'GOO?GG?GO@O?'
(ttp620
a(S'GA_?@?_?_?TO'
(ttp621
a(S'G?OG?G@OAASO'
(ttp622
a(S'G?O??O@CGG?W'
(ttp623
a(S'G?QG??P?I?OO'
(ttp624
a(S'G?Q_??_GO?OO'
(ttp625
a(S'G?O?@OaGO@O_'
(ttp626
a(S'G?O_@?`?a?OO'
(ttp627
a(S'G?O???@?hP?G'
(ttp628
a(S'G@?G@@CC@I@G'
(ttp629
a(S'G?_?AA?PP?Q?'
(ttp630
a(S'G?OCA?c?W@A?'
(ttp631
a(S'G?OO@?POAI?G'
(ttp632
a(S'G?__C?R?@@?g'
(ttp633
a(S'G?OC??aHG@@?'
(ttp634
a(S'G?_CBGG@OA?O'
(ttp635
a(S'GCACA@?CGQ?W'
(ttp636
a(S'GO?CGG?GO@O?'
(ttp637
a(S'G?_CB@AO@?@_'
(ttp638
a(S'G@?GAG@O@?O_'
(ttp639
a(S'G?_?@?q?W?CO'
(ttp640
a(S'G?_CCAOG?C?O'
(ttp641
a(S'G?`C???GH@A?'
(ttp642
a(S'G?O???Q@GD?G'
(ttp643
a(S'G??CAOAAQAOO'
(ttp644
a(S'GC??@@AGA?So'
(ttp645
a(S'G?P?A@A?A?Oo'
(ttp646
a(S'G?_K@?P?g??O'
(ttp647
a(S'G???@@GD_E?G'
(ttp648
a(S'GC??@?_X_?O_'
(ttp649
a(S'G???@GGDOB?G'
(ttp650
a(S'G??C??aJO?Oo'
(ttp651
a(S'GCOGA?A@H@??'
(ttp652
a(S'G?_G@@AO@?D_'
(ttp653
a(S'G?OOA@S?ICA?'
(ttp654
a(S'G?OG@@AOAE?_'
(ttp655
a(S'G??C?_@CGOAW'
(ttp656
a(S'G?O?AOACPB?G'
(ttp657
a(S'G?_K?@AO@?@_'
(ttp658
a(S'G?O??@C?BM??'
(ttp659
a(S'G?O???Q@@F?G'
(ttp660
a(S'GA??@?_Ho?OO'
(ttp661
a(S'GA?G?@_O@GT?'
(ttp662
a(S'G?O?B?`@g@??'
(ttp663
a(S'GE?GA??C`@C?'
(ttp664
a(S'G?OGP??OA??_'
(ttp665
a(S'G??C@@AAGS?G'
(ttp666
a(S'G@?G?@cC@I@?'
(ttp667
a(S'G?_C@PAW@?@_'
(ttp668
a(S'G?__??OCq?OO'
(ttp669
a(S'G@?C?@cG?GP_'
(ttp670
a(S'G@?CGO_GOHP_'
(ttp671
a(S'G?_C@@@@?G?g'
(ttp672
a(S'G?o?@G@?GO?O'
(ttp673
a(S'G?@@??Q?A_?o'
(ttp674
a(S'G?PG???Gh@??'
(ttp675
a(S'G?OOAB_C??P?'
(ttp676
a(S'G?_CCO`O@?A_'
(ttp677
a(S'G?OK??`?g@??'
(ttp678
a(S'G??CO?aD?a?O'
(ttp679
a(S'G?OGDGCOAE??'
(ttp680
a(S'GC????QCAQ?O'
(ttp681
a(S'G?O?@?S?WH?G'
(ttp682
a(S'G?OG?@A?I?P?'
(ttp683
a(S'G?OG?@AOAAT?'
(ttp684
a(S'G???@OaGO@W_'
(ttp685
a(S'G?_?A@A@@?P_'
(ttp686
a(S'G?OOA`c?G?R?'
(ttp687
a(S'G?OG@?P?a??o'
(ttp688
a(S'G?_CA@A?@B@?'
(ttp689
a(S'G?OGO?OOA??_'
(ttp690
a(S'G?O?@AC?OG?W'
(ttp691
a(S'GC?GA?Q@G@O?'
(ttp692
a(S'G?_CCPG?BAB?'
(ttp693
a(S'GC?G@?S?HH?G'
(ttp694
a(S'G@?C??aH??P_'
(ttp695
a(S'GA????OC_T?G'
(ttp696
a(S'GAO?????`P@G'
(ttp697
a(S'G??C??bBAAOO'
(ttp698
a(S'G?_CA@CO@?R_'
(ttp699
a(S'G?O?@?a@OB?G'
(ttp700
a(S'G?_?A@@@@?Q_'
(ttp701
a(S'GCOGC?A?AASO'
(ttp702
a(S'GA?G@J?@@@@G'
(ttp703
a(S'G?OG@AA?Q?OO'
(ttp704
a(S'G?O?AOAAQ?Oo'
(ttp705
a(S'G??C@A?Q_S?G'
(ttp706
a(S'G@?G??cO@GP_'
(ttp707
a(S'G?OGDAa@O@?_'
(ttp708
a(S'G?O?A@F?AAOO'
(ttp709
a(S'G?_CCGcO@?P_'
(ttp710
a(S'GC?OE?c?@?Q_'
(ttp711
a(S'G?OOE_c?H?R?'
(ttp712
a(S'GC?CA?c?g?OO'
(ttp713
a(S'G?O??GcOAAPO'
(ttp714
a(S'G???@?CC_a@W'
(ttp715
a(S'G?__???CQ?QO'
(ttp716
a(S'G?__??OCQ?AO'
(ttp717
a(S'GA?gCG?CQ?[O'
(ttp718
a(S'G??CA?cQO?Q_'
(ttp719
a(S'G?_?E@@?HOY?'
(ttp720
a(S'G?_CGG@PA?WO'
(ttp721
a(S'G??CA?c?_@X_'
(ttp722
a(S'G?_?@?P@a?Oo'
(ttp723
a(S'GA??@?ODOH?G'
(ttp724
a(S'G?P???aCG@?G'
(ttp725
a(S'G?_OG?OC@D?G'
(ttp726
a(S'G?`C???Ci?OO'
(ttp727
a(S'G?_CGG@E@P?G'
(ttp728
a(S'G?OOA?`?_?O_'
(ttp729
a(S'G@?CA?`D?AA?'
(ttp730
a(S'GG?CG@OOAU?G'
(ttp731
a(S'GC_C@?AO@P?g'
(ttp732
a(S'GA??@?_G_?TO'
(ttp733
a(S'GAO???O?_T?G'
(ttp734
a(S'G?OCA?S?_D?g'
(ttp735
a(S'GC_G@?AO@@C_'
(ttp736
a(S'G@ACG?cGO@P_'
(ttp737
a(S'G??CG_@HA?QO'
(ttp738
a(S'G?OG@@@?a??_'
(ttp739
a(S'G??CB?`@_AGO'
(ttp740
a(S'GC?GA?Q@H@??'
(ttp741
a(S'G?P@?@A?H_?G'
(ttp742
a(S'GG?O@O@GH@?G'
(ttp743
a(S'G???@?SC_e?W'
(ttp744
a(S'GAO???O?`T?G'
(ttp745
a(S'G@?G@B?C@I@G'
(ttp746
a(S'G@?G@HK?@A@G'
(ttp747
a(S'G?`@@@?CgA?W'
(ttp748
a(S'G?_WCG@CG?S?'
(ttp749
a(S'G??I@PAOACO_'
(ttp750
a(S'G?OGGG@EA?SO'
(ttp751
a(S'G?OP?AG?`C?G'
(ttp752
a(S'G?_C@?Q@GC?W'
(ttp753
a(S'G@O?@?P@?I?G'
(ttp754
a(S'G?_C??aDG?@O'
(ttp755
a(S'G?OGC@D?BAA?'
(ttp756
a(S'G??CG@G?`S?G'
(ttp757
a(S'G@?GCGgCG?T?'
(ttp758
a(S'G?Q?CB?GASO_'
(ttp759
a(S'G?OGCOB?AAOO'
(ttp760
a(S'G??OAHGG@?T_'
(ttp761
a(S'GG??AACCQ?OO'
(ttp762
a(S'GG??@@@?BQ??'
(ttp763
a(S'G?O_Q??C@@?G'
(ttp764
a(S'G?OGP??W@??_'
(ttp765
a(S'G???AASAQ?QO'
(ttp766
a(S'G?_c????Q?QO'
(ttp767
a(S'G?PC???C_B?G'
(ttp768
a(S'GA??@??D?H@G'
(ttp769
a(S'GA?CC@OCA[?G'
(ttp770
a(S'G?QG??OCOA?W'
(ttp771
a(S'G??CC?k?AGPo'
(ttp772
a(S'G?_?@?a?P@C_'
(ttp773
a(S'G?O?@A?K_S?O'
(ttp774
a(S'G?QG?@@CI?OO'
(ttp775
a(S'G?O?@G@@@B?G'
(ttp776
a(S'G?QG?@?W@?P_'
(ttp777
a(S'G?P?@?a?I?OO'
(ttp778
a(S'GC_?@?A?I?SO'
(ttp779
a(S'G?_?@AC?a?PO'
(ttp780
a(S'G?O_??OC_D?G'
(ttp781
a(S'GC_?@?AO@@Cg'
(ttp782
a(S'G?PG@?A?I??O'
(ttp783
a(S'G?_?@?SCgC?W'
(ttp784
a(S'G??CCOgCIGPO'
(ttp785
a(S'G?OOA@ACAEC?'
(ttp786
a(S'G?_C?H@CGA?W'
(ttp787
a(S'G?OGP@?OaA?_'
(ttp788
a(S'G??C?GgHO?Oo'
(ttp789
a(S'G??GAAGD@@B?'
(ttp790
a(S'G?_G?H@CG?SO'
(ttp791
a(S'G?_G@@B?G?SO'
(ttp792
a(S'G??OA_P?AOQo'
(ttp793
a(S'G??D?GGCOA?W'
(ttp794
a(S'GC_CC?CO@?Ag'
(ttp795
a(S'G@O???P@?I?G'
(ttp796
a(S'GCO?A?EOAAOO'
(ttp797
a(S'G??CA?`BG?QO'
(ttp798
a(S'G??CCOa?I?XO'
(ttp799
a(S'G?OGCOA?I?PO'
(ttp800
a(S'G???@OA?Pb?G'
(ttp801
a(S'G?`?@@?DGI?W'
(ttp802
a(S'GA?CC?c?AGPO'
(ttp803
a(S'G?O?CO`O@AAG'
(ttp804
a(S'GC?G@@?CGI?W'
(ttp805
a(S'G??C@GGCGS?W'
(ttp806
a(S'G?OGCOACIC?O'
(ttp807
a(S'G?O?AACAA?RO'
(ttp808
a(S'G??CGG?L?c?O'
(ttp809
a(S'G???@?P@_a?W'
(ttp810
a(S'G?_?@@aO@?D_'
(ttp811
a(S'G?_CA?P?g??O'
(ttp812
a(S'G?_?@@@@@G?g'
(ttp813
a(S'G???@G?P?EGG'
(ttp814
a(S'G?OG??@Gg@O?'
(ttp815
a(S'G?_?E@D?H?Q?'
(ttp816
a(S'G@????Q?HS?G'
(ttp817
a(S'G?_G?@AO@?T_'
(ttp818
a(S'G?_C??a?P@?_'
(ttp819
a(S'G??CA_SGo?Oo'
(ttp820
a(S'G???GGCE@D?G'
(ttp821
a(S'G?OCAAC?o@?G'
(ttp822
a(S'G?_CC@`?@AA_'
(ttp823
a(S'G?_?GGCCQ?OO'
(ttp824
a(S'G??CA?QF?E?W'
(ttp825
a(S'G?_GC@@CG?U?'
(ttp826
a(S'G@?G@@A?@A@G'
(ttp827
a(S'G??G@_P@@H?g'
(ttp828
a(S'G?QG?@@CI??O'
(ttp829
a(S'G?_?B@AO@?D_'
(ttp830
a(S'G??C?_C?PBAG'
(ttp831
a(S'G?O???Q@?E?W'
(ttp832
a(S'G?O?AO?YO?Q_'
(ttp833
a(S'G?O?@O@GHH?G'
(ttp834
a(S'G???@OaGP@G_'
(ttp835
a(S'G?O?AGCGG@P?'
(ttp836
a(S'G?b???OO@@?g'
(ttp837
a(S'GE?CA??DA?QO'
(ttp838
a(S'G?O_A@?OA?R?'
(ttp839
a(S'G?_?@?Q@@D?g'
(ttp840
a(S'G?`???OG`@?_'
(ttp841
a(S'G?`C???C`B?G'
(ttp842
a(S'G???@?aHO@W_'
(ttp843
a(S'G?_GGG@E??SO'
(ttp844
a(S'G??C??cAAGPo'
(ttp845
a(S'G??CCGC?Pa?G'
(ttp846
a(S'G?_???P@@@Ag'
(ttp847
a(S'GCOCA?A@G@?G'
(ttp848
a(S'GC_WC?A?@?S_'
(ttp849
a(S'G?_O@?P?@H?g'
(ttp850
a(S'G?_OH???A?PO'
(ttp851
a(S'G?_?B@EO@?@_'
(ttp852
a(S'G?O?@?aH?@P_'
(ttp853
a(S'G?_CC@@?I?Q?'
(ttp854
a(S'G?OOAA?W??P?'
(ttp855
a(S'G?O??OACAE?O'
(ttp856
a(S'G?O??@C?HK?G'
(ttp857
a(S'G?OO@@AGACO_'
(ttp858
a(S'G???@A?PPg?G'
(ttp859
a(S'G?POA?A?A?Oo'
(ttp860
a(S'G?_CC?r?G@?_'
(ttp861
a(S'G?O?AAC?Q?QO'
(ttp862
a(S'G?_OG?OC?D?G'
(ttp863
a(S'G?OCA?`@_@?_'
(ttp864
a(S'G?O?@?SGgD?G'
(ttp865
a(S'G?O?@@SOAM?G'
(ttp866
a(S'G??C?@AGHPHG'
(ttp867
a(S'G??C@?G?gP@G'
(ttp868
a(S'G@?G??PW??Q_'
(ttp869
a(S'G???@?CA@J@G'
(ttp870
a(S'G?OCAO@G_@O_'
(ttp871
a(S'G?O?AO@CI?QO'
(ttp872
a(S'G?O?A?Q@@F?G'
(ttp873
a(S'G?O?A?c?_@P_'
(ttp874
a(S'G???AOWGW?QO'
(ttp875
a(S'G?QG?@@CGA?W'
(ttp876
a(S'GCO???ACAQ?O'
(ttp877
a(S'G?O?@?cCoB?G'
(ttp878
a(S'G???@OGCOI?W'
(ttp879
a(S'GE??@??C_P?G'
(ttp880
a(S'G@__CG?GPOW_'
(ttp881
a(S'G@O?A?`@??Q_'
(ttp882
a(S'G?_CCA??A?PO'
(ttp883
a(S'G??C@?G@?I@W'
(ttp884
a(S'G?O???@@@J?G'
(ttp885
a(S'G??C@?aHO@G_'
(ttp886
a(S'G??CAAGHO?QO'
(ttp887
a(S'G?@@?@A?@AGG'
(ttp888
a(S'GA_CC@_?@OB?'
(ttp889
a(S'G??G??gDGGPO'
(ttp890
a(S'G?????@@AGWo'
(ttp891
a(S'G?OCA?S?gD?G'
(ttp892
a(S'G?OOA@@GG?U?'
(ttp893
a(S'G?OCO@A@?A?G'
(ttp894
a(S'GOO?A@PGg@?_'
(ttp895
a(S'G??C@_CGq?Oo'
(ttp896
a(S'GCOGA?A?H@C?'
(ttp897
a(S'G??OE_`C@AE?'
(ttp898
a(S'GGOG?O@OAAOO'
(ttp899
a(S'GC??@?a?I?SO'
(ttp900
a(S'GA?P?_`C`B?G'
(ttp901
a(S'GO_?P@?CgA?W'
(ttp902
a(S'G@?G@A??@@?g'
(ttp903
a(S'G?O?GG@IA?SO'
(ttp904
a(S'G?__C?P?AGOo'
(ttp905
a(S'G@??@?aGO?S_'
(ttp906
a(S'GG?CC@`CGQ?G'
(ttp907
a(S'G?P?@@AGA?Oo'
(ttp908
a(S'G?OGC@c?@AR?'
(ttp909
a(S'G?OGCGSOAE??'
(ttp910
a(S'G??E?OAGQ?Oo'
(ttp911
a(S'G?_CE@@?@?A_'
(ttp912
a(S'G?_OPAE?@@?g'
(ttp913
a(S'G?_CC@`?@?A_'
(ttp914
a(S'G?O@?HGGACOo'
(ttp915
a(S'G?OG??@?aAOO'
(ttp916
a(S'G?_CCA?CA?PO'
(ttp917
a(S'G?O?A?p@g@??'
(ttp918
a(S'G?OO@@QGAC?_'
(ttp919
a(S'GE?GA??C_?SO'
(ttp920
a(S'G@?CA?v??A?o'
(ttp921
a(S'G?O?O?_O`Q??'
(ttp922
a(S'G?_OW?SCGCAW'
(ttp923
a(S'G?OC??a@W@?G'
(ttp924
a(S'G?OG??QCY??O'
(ttp925
a(S'G?_CCAO?A?OO'
(ttp926
a(S'G?Q?C?_W@?P_'
(ttp927
a(S'GCOG@?C?HH?G'
(ttp928
a(S'GCOGA?A@G@O?'
(ttp929
a(S'GA?CC@_G@OB?'
(ttp930
a(S'G???@?SEOI?W'
(ttp931
a(S'G?`?C?QDGA?W'
(ttp932
a(S'G??C@AA?Oo?W'
(ttp933
a(S'G?OCA?SG_D?_'
(ttp934
a(S'G?OG@?PGg??O'
(ttp935
a(S'G?O?@?c?OI?O'
(ttp936
a(S'G?O?AGCGH@@?'
(ttp937
a(S'G?O_AB??`@@G'
(ttp938
a(S'G?_KCO@O@?A_'
(ttp939
a(S'G??GHOG?a?PO'
(ttp940
a(S'G@???@cG@GP_'
(ttp941
a(S'GA??@@?G@HDG'
(ttp942
a(S'G???@_Q?AS?o'
(ttp943
a(S'G??CA?`B??Qo'
(ttp944
a(S'G??OHGg?AOPO'
(ttp945
a(S'G??CCOG?HK?G'
(ttp946
a(S'G?_C??cA@H@_'
(ttp947
a(S'G@A?@??GACOo'
(ttp948
a(S'G?O?A?`@_AOO'
(ttp949
a(S'G?_?@@eO@?P_'
(ttp950
a(S'G???AACEA?RO'
(ttp951
a(S'G?_G@@E?@@@_'
(ttp952
a(S'G??GO_S?aAOO'
(ttp953
a(S'G?_?@?PGg?CO'
(ttp954
a(S'G?_CCAO??D?G'
(ttp955
a(S'G?_O??P?A?Qo'
(ttp956
a(S'G?_OO?O?A?Oo'
(ttp957
a(S'G@O?@?aH??P_'
(ttp958
a(S'G??CA?`B_AOO'
(ttp959
a(S'GAO?@?_@o@?G'
(ttp960
a(S'GC??@?OGGW?O'
(ttp961
a(S'G?OOQ??C@B?G'
(ttp962
a(S'G?_OP??C@B?G'
(ttp963
a(S'G??C@?PA_Q?W'
(ttp964
a(S'G?_CA@@@??Q_'
(ttp965
a(S'G@?c??_?A?R?'
(ttp966
a(S'GE??A??DA?QO'
(ttp967
a(S'GC_?C?ACI?SO'
(ttp968
a(S'G?O???@D?I?W'
(ttp969
a(S'G?O_??_G_?PO'
(ttp970
a(S'G?OGP??W??O_'
(ttp971
a(S'G?OG?@PGg@?_'
(ttp972
a(S'G??C@AAAOP?G'
(ttp973
a(S'G??CAO@I?@Q_'
(ttp974
a(S'G??C@_A?OQ?W'
(ttp975
a(S'G?OGCOACICOO'
(ttp976
a(S'G?OGAGG@P@?_'
(ttp977
a(S'G?OG??P?a?Oo'
(ttp978
a(S'G?OCC@@CAY?G'
(ttp979
a(S'G?_?@?@Ci?CO'
(ttp980
a(S'G??CC?kOAGP_'
(ttp981
a(S'G?P?C?aCGQ?W'
(ttp982
a(S'G@?CA?`@??Q_'
(ttp983
a(S'G?_?C@DG@?Q_'
(ttp984
a(S'G??C@GG@GD?G'
(ttp985
a(S'G??O@GKGH@@G'
(ttp986
a(S'G???A_ACPBCG'
(ttp987
a(S'G?OO?@QCAE?G'
(ttp988
a(S'G?_??@aO@OX_'
(ttp989
a(S'G?OG?@B?I?SO'
(ttp990
a(S'G@?C?@CGACQ_'
(ttp991
a(S'G?OG@@CCaE?O'
(ttp992
a(S'G?_?@@AW@?D_'
(ttp993
a(S'GC?CA@CG??Qo'
(ttp994
a(S'G?OOO?_C@B?G'
(ttp995
a(S'G@?G@@AG??P_'
(ttp996
a(S'G?_CA@A?H@@?'
(ttp997
a(S'G?_C@@AOB?@_'
(ttp998
a(S'G?_C@@AO@O@g'
(ttp999
a(S'G?OGO?OW@??_'
(ttp1000
a(S'G?_C@@B?I?OO'
(ttp1001
a(S'G?_CC?bCG@??'
(ttp1002
a(S'G?O??PASAE?G'
(ttp1003
a(S'G@?CGO_SAaB?'
(ttp1004
a(S'G?OOA@CCAEA?'
(ttp1005
a(S'G@??GOOSAeAG'
(ttp1006
a(S'G?OG@AC?PH?G'
(ttp1007
a(S'GA@G@@?@@H?g'
(ttp1008
a(S'G?_?C?QDWA?W'
(ttp1009
a(S'G@?CGO_W@GP_'
(ttp1010
a(S'G?OCAO@G_@?_'
(ttp1011
a(S'G?O?AAA@P@?G'
(ttp1012
a(S'G?OG?HD?AAOO'
(ttp1013
a(S'G?OG?@ACI?@?'
(ttp1014
a(S'G?_C??p?g??O'
(ttp1015
a(S'G@??@?P?_Q?G'
(ttp1016
a(S'G?OG@@CO@I@G'
(ttp1017
a(S'G?OG@@f?GA?O'
(ttp1018
a(S'G?O?@@CGHH@G'
(ttp1019
a(S'G@AC???GACOo'
(ttp1020
a(S'G???AOQEQA?O'
(ttp1021
a(S'G?_?CAS?@DAG'
(ttp1022
a(S'G?????Q@AEGO'
(ttp1023
a(S'G??GA@AA@?T_'
(ttp1024
a(S'G?OOA_c?G?RO'
(ttp1025
a(S'G??C??aDOBGG'
(ttp1026
a(S'G???@GGCGS?W'
(ttp1027
a(S'G?_?C@@G@OY_'
(ttp1028
a(S'G@?GEOGCG?R?'
(ttp1029
a(S'G?_G@GGDOA?O'
(ttp1030
a(S'G?OGGGG?Q?SO'
(ttp1031
a(S'G?OO@AOGGL?G'
(ttp1032
a(S'G?QG??OCQA?O'
(ttp1033
a(S'G?PG@??Ga?Oo'
(ttp1034
a(S'G?_?@@AOB?D_'
(ttp1035
a(S'G?_CC@@?B?A_'
(ttp1036
a(S'G?OO@@@CAI?G'
(ttp1037
a(S'G??C@?bBA?Oo'
(ttp1038
a(S'G?OC??b@G@?G'
(ttp1039
a(S'G???@OPIa?Oo'
(ttp1040
a(S'G?_?EACO@?R?'
(ttp1041
a(S'G?_OGGPOAOW_'
(ttp1042
a(S'G?OGC@ACGA@G'
(ttp1043
a(S'G?OGAAC?`@@?'
(ttp1044
a(S'G?_OBICCGC@O'
(ttp1045
a(S'G?OGC@c?@aB?'
(ttp1046
a(S'GC?GC?Q?AASO'
(ttp1047
a(S'GC?GA?Q?H@C?'
(ttp1048
a(S'G??C@@KGaCOo'
(ttp1049
a(S'G??CA@A?@RHG'
(ttp1050
a(S'G??C@?a?Oo?o'
(ttp1051
a(S'G?OGC@@?I?U?'
(ttp1052
a(S'G???@O?OPi?G'
(ttp1053
a(S'G??QAI?W@CS_'
(ttp1054
a(S'G?PG???C`B?G'
(ttp1055
a(S'G?_CG?oCW@?O'
(ttp1056
a(S'G???@_AGQ?So'
(ttp1057
a(S'G???AAS?Q?YO'
(ttp1058
a(S'G?_C@_CO@L?g'
(ttp1059
a(S'G?_C@@B?@P?g'
(ttp1060
a(S'G?_CA@ACG@@?'
(ttp1061
a(S'G?_C@@b?GA?O'
(ttp1062
a(S'G?_?@OPO@H?g'
(ttp1063
a(S'G??CAO@G_@W_'
(ttp1064
a(S'G?O?AA_OpP?_'
(ttp1065
a(S'G?O?@?S?_E?W'
(ttp1066
a(S'G?OG??@?a?Oo'
(ttp1067
a(S'G?_???P@A?Qo'
(ttp1068
a(S'G?Q?A@@CI?OO'
(ttp1069
a(S'G?_CGB?C@PBG'
(ttp1070
a(S'GA?_CG_CPPGG'
(ttp1071
a(S'G?O?A@SOAEA?'
(ttp1072
a(S'GA?G@@@@@H?g'
(ttp1073
a(S'G?_C@AC?QG?O'
(ttp1074
a(S'G??CA?`R??Q_'
(ttp1075
a(S'G?_C@?Q@AC?o'
(ttp1076
a(S'G?_O@@A?A?P_'
(ttp1077
a(S'G?_C?@A?H@@G'
(ttp1078
a(S'G???AOPI`@?_'
(ttp1079
a(S'GC??A@EC@B?G'
(ttp1080
a(S'G?_?COACICWO'
(ttp1081
a(S'G?OGAGG@O@O_'
(ttp1082
a(S'G?OGAGG?P@C_'
(ttp1083
a(S'G??GEOGO@?R_'
(ttp1084
a(S'G?O?AOGGo?Oo'
(ttp1085
a(S'G?????QE?U?W'
(ttp1086
a(S'G?_CAG@F?A?O'
(ttp1087
a(S'G?_OD?V?GC?g'
(ttp1088
a(S'G@?S@I?CAQ@G'
(ttp1089
a(S'G??D?_aGP@?_'
(ttp1090
a(S'G?OH?HGOACO_'
(ttp1091
a(S'G?OGOOAAA?Oo'
(ttp1092
a(S'G?O_A@?C`B@G'
(ttp1093
a(S'G?_CKP?C@ABG'
(ttp1094
a(S'G?OG?AACQ??O'
(ttp1095
a(S'G?_CSAA?@@?g'
(ttp1096
a(S'G?_CCOA?AAXO'
(ttp1097
a(S'G?_?@?a@@@@_'
(ttp1098
a(S'G?O???aH?@P_'
(ttp1099
a(S'G??CA@AO@QHG'
(ttp1100
a(S'G?_C@@aO@O@_'
(ttp1101
a(S'G?O??G`D@B?G'
(ttp1102
a(S'G??C@?PA_P?g'
(ttp1103
a(S'GA?CA??DACQO'
(ttp1104
a(S'G?`?@?OCaA?O'
(ttp1105
a(S'GAO?@?O@OH?G'
(ttp1106
a(S'GA?O@?_GO@P_'
(ttp1107
a(S'G?_OP??CAA?O'
(ttp1108
a(S'GAO?A??@ACQO'
(ttp1109
a(S'G?O?A@CCICQO'
(ttp1110
a(S'G?OOG?_OaOP_'
(ttp1111
a(S'G?OOC_c?I?R?'
(ttp1112
a(S'G?aC??OCQA?O'
(ttp1113
a(S'G@?GG?O?@D?g'
(ttp1114
a(S'G?OOQ??CAA?O'
(ttp1115
a(S'G@?G?A?WPG[_'
(ttp1116
a(S'G??C@?aJ??Po'
(ttp1117
a(S'G@?GCG@G@?[_'
(ttp1118
a(S'G??CAOGGo?Oo'
(ttp1119
a(S'G???@O?Q@M?G'
(ttp1120
a(S'G?????Q@Ac?o'
(ttp1121
a(S'G??CAHKO@C?g'
(ttp1122
a(S'GC?C@?aO@P?g'
(ttp1123
a(S'G?`CA??O@@A_'
(ttp1124
a(S'G?OOC_cGG?R?'
(ttp1125
a(S'G??D?`AGACOo'
(ttp1126
a(S'G?`C???G`@?_'
(ttp1127
a(S'G?QO??PGA?Oo'
(ttp1128
a(S'G?_CEO@O@?Q_'
(ttp1129
a(S'G?OCAGGHO?Oo'
(ttp1130
a(S'G?OOCOACAE?G'
(ttp1131
a(S'G?_?@@A@A?P_'
(ttp1132
a(S'G@?GO?OG@@?_'
(ttp1133
a(S'G?PG??ACG@?G'
(ttp1134
a(S'G??CO@AA@Q?G'
(ttp1135
a(S'G?OOAGSGGC?O'
(ttp1136
a(S'G?OOC?b?@ACG'
(ttp1137
a(S'G?O?AGC?I?PO'
(ttp1138
a(S'G?O?@@A@?E?G'
(ttp1139
a(S'G??G?@ACIC[O'
(ttp1140
a(S'G??OA@a?@A\\?'
(ttp1141
a(S'G??I@OQO@D?g'
(ttp1142
a(S'G??CA?i@OAOO'
(ttp1143
a(S'G???@AGCOW?W'
(ttp1144
a(S'G???@?aI?@T_'
(ttp1145
a(S'G???O?_D?BI?'
(ttp1146
a(S'G??GCOACICWO'
(ttp1147
a(S'G??`A`AC@B@G'
(ttp1148
a(S'G?OOA@C?ACQ_'
(ttp1149
a(S'G??Q@OAGACOo'
(ttp1150
a(S'GCOGC?COAAQ?'
(ttp1151
a(S'GA?G??_D@H@?'
(ttp1152
a(S'G?OG??W@@L?g'
(ttp1153
a(S'G??C@OA?Ac?o'
(ttp1154
a(S'G?O?AO`A_?Oo'
(ttp1155
a(S'G??G@GGOQASO'
(ttp1156
a(S'G?OCC@S?Ak?g'
(ttp1157
a(S'GAOCC@O?A[?G'
(ttp1158
a(S'G?O?@@CGaCOo'
(ttp1159
a(S'G?O_??_Go?OO'
(ttp1160
a(S'G???@?P@_`?g'
(ttp1161
a(S'G@?G?GOCGE?W'
(ttp1162
a(S'G??OAa?W@CU_'
(ttp1163
a(S'GCOCC?AGHP?G'
(ttp1164
a(S'G?_CCPA?AAX?'
(ttp1165
a(S'G?_CCOB?I?WO'
(ttp1166
a(S'G?OO@?`CGI?W'
(ttp1167
a(S'GC?G@@CCgA?W'
(ttp1168
a(S'G?_GC@@?@?U_'
(ttp1169
a(S'GA_?@@??@HDG'
(ttp1170
a(S'G??CA_P@A?Qo'
(ttp1171
a(S'G??C??a@I?XO'
(ttp1172
a(S'G??G@@AOAC[_'
(ttp1173
a(S'G??C@@A?Gs?G'
(ttp1174
a(S'G?_OEOG?@AR?'
(ttp1175
a(S'G?_G@@A?@@D_'
(ttp1176
a(S'G?O?A@C?AEQO'
(ttp1177
a(S'G?_?CAcC@@B?'
(ttp1178
a(S'G?OOA?ROAQ?_'
(ttp1179
a(S'G?O?AOPG`@?_'
(ttp1180
a(S'G?OO?@AGACS_'
(ttp1181
a(S'G???COPIA?Q_'
(ttp1182
a(S'G????GWHQ?Oo'
(ttp1183
a(S'GCO?@??GGW?O'
(ttp1184
a(S'G?POA??OA?Q_'
(ttp1185
a(S'G@?a@O`?a?Oo'
(ttp1186
a(S'G?_G@G@O@@C_'
(ttp1187
a(S'G?O_ABA?ACOO'
(ttp1188
a(S'G?_?@@B?I?SO'
(ttp1189
a(S'G?_?COBCI?WO'
(ttp1190
a(S'G?_C?@BCI??O'
(ttp1191
a(S'GO_?C?QCGE?W'
(ttp1192
a(S'G?_?@?P?i?CO'
(ttp1193
a(S'G?_CC@aCG?P?'
(ttp1194
a(S'G?O?AACGp@??'
(ttp1195
a(S'G?P???_C`B?G'
(ttp1196
a(S'G?O?A?`@@BA?'
(ttp1197
a(S'G?O?A?cCg?PO'
(ttp1198
a(S'G??C?ACA@DAG'
(ttp1199
a(S'G?OC?@C?GcAG'
(ttp1200
a(S'G?O_@?_Ga?PO'
(ttp1201
a(S'G?_??H@CI?SO'
(ttp1202
a(S'G??D?_QGQ?Oo'
(ttp1203
a(S'GC_GC?CO@?Q_'
(ttp1204
a(S'G?_C@@AW@?@_'
(ttp1205
a(S'G?_C?@AOB?@_'
(ttp1206
a(S'GA?O@?`?aAPO'
(ttp1207
a(S'G?OG@@A?I?@?'
(ttp1208
a(S'G?O?A@C?I?R?'
(ttp1209
a(S'G?Q?A?OO@D?g'
(ttp1210
a(S'G??GA_S?o?Oo'
(ttp1211
a(S'G?OOA@i?@AD?'
(ttp1212
a(S'G??G@?`F_A?O'
(ttp1213
a(S'G?OG??cAGGPO'
(ttp1214
a(S'G?OO@A?SQY?G'
(ttp1215
a(S'G??GA?RB@@?_'
(ttp1216
a(S'G?_C@@aO@?@_'
(ttp1217
a(S'G?_CCAA?@@@G'
(ttp1218
a(S'G?__CB?CAG\\?'
(ttp1219
a(S'G?_O??WO`ECG'
(ttp1220
a(S'G@?O??cG@GP_'
(ttp1221
a(S'G?OCA?cG_@P_'
(ttp1222
a(S'G?O?A?`@?@Q_'
(ttp1223
a(S'GC?CC@CGA?Q_'
(ttp1224
a(S'G?OG@OG?PH?g'
(ttp1225
a(S'GC?CC?QGHP?G'
(ttp1226
a(S'G?_OG?OCAC?O'
(ttp1227
a(S'G?_?@?a@G?PO'
(ttp1228
a(S'G@?CGW`?AAPO'
(ttp1229
a(S'G??CA_SGo@?_'
(ttp1230
a(S'G?OG?HPGG@?_'
(ttp1231
a(S'G?OC@@@@?I?G'
(ttp1232
a(S'G?O???aHW@O?'
(ttp1233
a(S'G?_@P@?CgA?W'
(ttp1234
a(S'G??C@G_Z??P_'
(ttp1235
a(S'G?OO?G`C@B?G'
(ttp1236
a(S'G?__@@??@H@g'
(ttp1237
a(S'G?OC@?aHO@?_'
(ttp1238
a(S'GA??C@_G@?V?'
(ttp1239
a(S'G?O_H`?G@X@G'
(ttp1240
a(S'G?OCA?a@G?PO'
(ttp1241
a(S'G?_?C?QCWACW'
(ttp1242
a(S'GA????_DAGPO'
(ttp1243
a(S'G?OCCOa?I?PO'
(ttp1244
a(S'G?_C?HD?I?WO'
(ttp1245
a(S'G?O_@?_G_@@?'
(ttp1246
a(S'G?PG???G`@?_'
(ttp1247
a(S'G?O??A?SaS??'
(ttp1248
a(S'G@?C@I?SAQ@G'
(ttp1249
a(S'GA?SCG_COQGG'
(ttp1250
a(S'G?`?@@CCgA?W'
(ttp1251
a(S'G?_C@`CO@K?g'
(ttp1252
a(S'G???@AAA@T?G'
(ttp1253
a(S'GA_?C@_?@?V?'
(ttp1254
a(S'G?O???a@PB?G'
(ttp1255
a(S'GA?G??OD@L?G'
(ttp1256
a(S'G?O?@OaGP@?_'
(ttp1257
a(S'G??OA@g?@AV?'
(ttp1258
a(S'G??WG`?G@GT_'
(ttp1259
a(S'G???@?a@?BH?'
(ttp1260
a(S'G????_aCPBCG'
(ttp1261
a(S'G?OGPACOaA?O'
(ttp1262
a(S'G??CCOgOAAR?'
(ttp1263
a(S'G?_CA@cO@?R_'
(ttp1264
a(S'G?_C@?a@?@@_'
(ttp1265
a(S'G?O?AAG?QOQO'
(ttp1266
a(S'G?_?@@B?@@Cg'
(ttp1267
a(S'G?O?CGcSOA?G'
(ttp1268
a(S'G?OH?HG?ACOo'
(ttp1269
a(S'G?O???`CgP??'
(ttp1270
a(S'G?OG??P?i?OO'
(ttp1271
a(S'G?Q?C?pOAQ?_'
(ttp1272
a(S'G??GEAGO@?V?'
(ttp1273
a(S'G?OCA@COACQ_'
(ttp1274
a(S'G?`C@??G_@?_'
(ttp1275
a(S'G?_WGGPO@?S_'
(ttp1276
a(S'G?_?E@DCG?Q?'
(ttp1277
a(S'GA?G??_D?GPO'
(ttp1278
a(S'G??CAO?QA?R_'
(ttp1279
a(S'G?O?C?a?PQ??'
(ttp1280
a(S'G?OCA?`@G@A?'
(ttp1281
a(S'G?_C?AC?Q?QO'
(ttp1282
a(S'GC??C?aCI?SO'
(ttp1283
a(S'G?_OGH@G@?[_'
(ttp1284
a(S'G?_?CGCCICWO'
(ttp1285
a(S'G??C?G_Z??P_'
(ttp1286
a(S'G???@AGD_D?G'
(ttp1287
a(S'GC?GC?SOAAQ?'
(ttp1288
a(S'G??CAG@BA?Oo'
(ttp1289
a(S'G?OCA?`D_A?O'
(ttp1290
a(S'G?OCCOgOAGP_'
(ttp1291
a(S'G?_G@@B?@@C_'
(ttp1292
a(S'G?O?A?d?g@O?'
(ttp1293
a(S'G?OCC@QGGS?G'
(ttp1294
a(S'G?OGA_C?oAOO'
(ttp1295
a(S'GC?GC@AG@?S_'
(ttp1296
a(S'G@?CGO?SAaBG'
(ttp1297
a(S'G?_CC@AG@?P_'
(ttp1298
a(S'G?O??GdOAAOO'
(ttp1299
a(S'G?P?@?_CaA?O'
(ttp1300
a(S'G???A?cEW?QO'
(ttp1301
a(S'G?_?OOQO@@?g'
(ttp1302
a(S'G?OOA@SGGCA?'
(ttp1303
a(S'G??GOAW?a?SO'
(ttp1304
a(S'G?OG@@D?HH?G'
(ttp1305
a(S'G?_CC@@CI?A?'
(ttp1306
a(S'G??CA?`D_AGO'
(ttp1307
a(S'G?PG???Gg?OO'
(ttp1308
a(S'G?PG@@?HGH?_'
(ttp1309
a(S'G?OGA@@@??Q_'
(ttp1310
a(S'G@?C??cG?GPo'
(ttp1311
a(S'G???AOPG`@G_'
(ttp1312
a(S'GAOGA???`DC?'
(ttp1313
a(S'G?OG?@B?AASO'
(ttp1314
a(S'G?_C??`Cg@??'
(ttp1315
a(S'GA?OAg?W@CS_'
(ttp1316
a(S'G@?OAOAC@EGG'
(ttp1317
a(S'G?_C@AAOPP?g'
(ttp1318
a(S'G?OOA_@OAOQ_'
(ttp1319
a(S'G?`?@?OC_B?G'
(ttp1320
a(S'G?OCCOAGH`@G'
(ttp1321
a(S'GA????OCoP?G'
(ttp1322
a(S'G?_?C@@G@?U_'
(ttp1323
a(S'G?O??GPHA?Oo'
(ttp1324
a(S'G???A?cCW?YO'
(ttp1325
a(S'GA?OIO_CO?YO'
(ttp1326
a(S'G?OCCOi?I?PO'
(ttp1327
a(S'G?OCGGCA?D?G'
(ttp1328
a(S'G?O??@C?`E?G'
(ttp1329
a(S'G?O?COaGG?PO'
(ttp1330
a(S'GAOCA??@ACQO'
(ttp1331
a(S'G?OOA?QC?F?G'
(ttp1332
a(S'G?OG??QGQ?Oo'
(ttp1333
a(S'G?O???cAAGPo'
(ttp1334
a(S'G?aC??OO@D?g'
(ttp1335
a(S'G?_?@@EO@?@g'
(ttp1336
a(S'G?`?@?OGa?Oo'
(ttp1337
a(S'GAOG??O@@L?G'
(ttp1338
a(S'GAO???O?oP?G'
(ttp1339
a(S'G?OGCG@?AASO'
(ttp1340
a(S'G?OH?GG?I?PO'
(ttp1341
a(S'GCO?A??PA?Q_'
(ttp1342
a(S'GAOGA???_CSO'
(ttp1343
a(S'G??CC@KGAGP_'
(ttp1344
a(S'G?_E?GSO@D?g'
(ttp1345
a(S'G?OP?GGGACOo'
(ttp1346
a(S'G?OCAO@I_?Oo'
(ttp1347
a(S'G?OGAGCAO?Oo'
(ttp1348
a(S'G?OCC@Q?AU?G'
(ttp1349
a(S'G?_C@@B?@@?g'
(ttp1350
a(S'G??C@HGGHP@G'
(ttp1351
a(S'GC??A?OPA?Q_'
(ttp1352
a(S'G??C@?aBA?Po'
(ttp1353
a(S'G?OQAQ?WP?Q_'
(ttp1354
a(S'G?OOGGg?AOPO'
(ttp1355
a(S'G?OGAGG?W?SO'
(ttp1356
a(S'G??CE`CG@?R_'
(ttp1357
a(S'G?_C?GPO@@?g'
(ttp1358
a(S'G?OCA?CAACQo'
(ttp1359
a(S'G???@?SAOH?g'
(ttp1360
a(S'G?OG??g@?GPo'
(ttp1361
a(S'G@?GCGg?H?T?'
(ttp1362
a(S'G?_CSAA?@P?g'
(ttp1363
a(S'G?OOC_@GAOQ_'
(ttp1364
a(S'G???A@GC`R@G'
(ttp1365
a(S'G?QG??OO@D?g'
(ttp1366
a(S'G??C??bBA?Oo'
(ttp1367
a(S'G?OCA?Q@GD?G'
(ttp1368
a(S'GA?g@@?CaC[O'
(ttp1369
a(S'GA?CC_PHAGOo'
(ttp1370
a(S'G??GE_PO@?U_'
(ttp1371
a(S'G?OCAAA@O@?G'
(ttp1372
a(S'G?__EB?C@?V?'
(ttp1373
a(S'G?_C@@AG@@@_'
(ttp1374
a(S'G?O?ABE?ACOO'
(ttp1375
a(S'G?_?E@@CG?U?'
(ttp1376
a(S'G??_I`?CACUO'
(ttp1377
a(S'G?_?C?UCWA?W'
(ttp1378
a(S'GCO?@?A?AQ?O'
(ttp1379
a(S'G@?OAGGG@?T_'
(ttp1380
a(S'G??OAAGCQOQO'
(ttp1381
a(S'G?OCA?`@?BA?'
(ttp1382
a(S'G?_C@G@O@P?g'
(ttp1383
a(S'G?OGC@D?AAQ?'
(ttp1384
a(S'G??C@AAB?D?G'
(ttp1385
a(S'G??CA@cO@_R_'
(ttp1386
a(S'G?__@@@?@H?g'
(ttp1387
a(S'G?PG@??G_@?_'
(ttp1388
a(S'G?OG@?P?i??O'
(ttp1389
a(S'G?_CS?QGG@?_'
(ttp1390
a(S'G?O?@GC?AE?O'
(ttp1391
a(S'G?_OBOZ?OA?o'
(ttp1392
a(S'G??EAGSO@D?g'
(ttp1393
a(S'G?O?AG@@A?Oo'
(ttp1394
a(S'G?_?CAU?Q?WO'
(ttp1395
a(S'G???OOQIA?Oo'
(ttp1396
a(S'G??C@?AA?R@G'
(ttp1397
a(S'G???COYGHD?G'
(ttp1398
a(S'G???AAGCQOQO'
(ttp1399
a(S'G?_?@ACCQG?O'
(ttp1400
a(S'G?_CCG[?Q?Oo'
(ttp1401
a(S'G?OOA?QOAEC?'
(ttp1402
a(S'G??CCO@IA?Q_'
(ttp1403
a(S'G??CC?k?IGPO'
(ttp1404
a(S'G?OGC_CO@EAG'
(ttp1405
a(S'G?_C@@A?@P@g'
(ttp1406
a(S'G?O_??_G`@@?'
(ttp1407
a(S'G?O?@P@GHH?G'
(ttp1408
a(S'GC??@?Q?AQ?O'
(ttp1409
a(S'G??CO_aDAA?O'
(ttp1410
a(S'G?_G?GPO@@C_'
(ttp1411
a(S'G?O_CO`AAIPO'
(ttp1412
a(S'G?O?@ACGPH?G'
(ttp1413
a(S'G?O?A?`@g@O?'
(ttp1414
a(S'G?OG@@C?@J@G'
(ttp1415
a(S'G?O???Q?WP?G'
(ttp1416
a(S'G??C??aBA?Po'
(ttp1417
a(S'G?O?@?a@W@?G'
(ttp1418
a(S'G?O_@@@GHH?G'
(ttp1419
a(S'G?_?E@@CGOY?'
(ttp1420
a(S'G?`?A?OO@@A_'
(ttp1421
a(S'G?OOA@S?AEA?'
(ttp1422
a(S'G??D?G?Q@E?G'
(ttp1423
a(S'G?__K`?CACU?'
(ttp1424
a(S'G?OGC@@?AAU?'
(ttp1425
a(S'G??CC@kG@?R_'
(ttp1426
a(S'G?_CCOGOAAR?'
(ttp1427
a(S'G??C@G?R?E?G'
(ttp1428
a(S'G?O?A@GH_?P_'
(ttp1429
a(S'G?_?C?QDGE?W'
(ttp1430
a(S'G?O?@OAGQ?Oo'
(ttp1431
a(S'G?_??GPO@@Cg'
(ttp1432
a(S'G?OGGOG?a?PO'
(ttp1433
a(S'G?OG?AOOqA?O'
(ttp1434
a(S'G??C??aHO?Wo'
(ttp1435
a(S'G?OO??`C@J?G'
(ttp1436
a(S'G?O?A@PGgP?_'
(ttp1437
a(S'G?OG??g@GGPO'
(ttp1438
a(S'G?OO??k?IGPO'
(ttp1439
a(S'G?O?@?c?i?PO'
(ttp1440
a(S'G?_O??P?I?QO'
(ttp1441
a(S'G?_?@P@CGI?W'
(ttp1442
a(S'G?_?A@AO@OX_'
(ttp1443
a(S'G??C@?P@?i?W'
(ttp1444
a(S'G??CA?`@G?YO'
(ttp1445
a(S'G????_QGQ?So'
(ttp1446
a(S'G??CA?`B_?Oo'
(ttp1447
a(S'G?OOGO?SAeAG'
(ttp1448
a(S'G?O?A?c?PBA?'
(ttp1449
a(S'G?_C@?a@A?Po'
(ttp1450
a(S'G?P?@?_C_B?G'
(ttp1451
a(S'G?_?E@@?@OY_'
(ttp1452
a(S'G?O?@?cGo?Oo'
(ttp1453
a(S'G???@?PA?Y?W'
(ttp1454
a(S'G?_?@@AG@@D_'
(ttp1455
a(S'G?OO@@`CGI?G'
(ttp1456
a(S'G?`?@?OG_@?_'
(ttp1457
a(S'G?OG@@C?HH@G'
(ttp1458
a(S'GA?OI@?CAC]?'
(ttp1459
a(S'G?_CCGK?@B@G'
(ttp1460
a(S'GA?gCG?CAC[O'
(ttp1461
a(S'G?_???P?i?SO'
(ttp1462
a(S'G?OG??a?W?OO'
(ttp1463
a(S'G?_C@?Q@?D?g'
(ttp1464
a(S'G?_CCAOOAC??'
(ttp1465
a(S'G??CAG?Z??P_'
(ttp1466
a(S'GA??@?OCOX?G'
(ttp1467
a(S'GA?CC@_G@?P_'
(ttp1468
a(S'G?_CGGPO@P?g'
(ttp1469
a(S'G?_CA@A?@@@_'
(ttp1470
a(S'G?O@CGGGACOo'
(ttp1471
a(S'G?OGC?QHGD?_'
(ttp1472
a(S'G?`?@?OO@H?g'
(ttp1473
a(S'G?OCC_@HAGOo'
(ttp1474
a(S'G?_CCA?C@D?G'
(ttp1475
a(S'GA?G@BA@@@@G'
(ttp1476
a(S'G@?C??CGAGPo'
(ttp1477
a(S'G?O?CO`OAAQ?'
(ttp1478
a(S'G?_C?@aO@?P_'
(ttp1479
a(S'G??G@G_V?A@?'
(ttp1480
a(S'G?OI?PAOACO_'
(ttp1481
a(S'G?OCA@COAEA?'
(ttp1482
a(S'G?`C@??Ga?Oo'
(ttp1483
a(S'G@?H?I?W@CW_'
(ttp1484
a(S'G?aC??OCOB?G'
(ttp1485
a(S'G??C@G@JA?Oo'
(ttp1486
a(S'G?OG@?SOaE?O'
(ttp1487
a(S'G?O?@?P@GH?G'
(ttp1488
a(S'G?_C?@AW@?P_'
(ttp1489
a(S'G?O???P@@J?G'
(ttp1490
a(S'G???AAWOQOQO'
(ttp1491
a(S'G?OCCPAGGC?G'
(ttp1492
a(S'G?O_A?q?W@?O'
(ttp1493
a(S'GA?OGG_CAOXO'
(ttp1494
a(S'G?OOE_cCG?R?'
(ttp1495
a(S'G??C@?aJO?Oo'
(ttp1496
a(S'G?OGA@CO`A@_'
(ttp1497
a(S'G?_OEO@CG?Y?'
(ttp1498
a(S'G?OC@@AOAU?G'
(ttp1499
a(S'G@?CG?_W@?P_'
(ttp1500
a(S'G?_??@aO@?T_'
(ttp1501
a(S'G?O?A@DGG?QO'
(ttp1502
a(S'G?O?@@DGHH?G'
(ttp1503
a(S'G??CA@@J??Q_'
(ttp1504
a(S'G?OCDA?OQY?G'
(ttp1505
a(S'G?OCA?CG`D?_'
(ttp1506
a(S'G?O?@?cGg?PO'
(ttp1507
a(S'G?OG@?PG_@?_'
(ttp1508
a(S'G?O?@?a?OQ?O'
(ttp1509
a(S'G??C@?AAGP@G'
(ttp1510
a(S'G@ACG_cGO@P_'
(ttp1511
a(S'G?O?A@@@A?Q_'
(ttp1512
a(S'G??CCG[GQ?Oo'
(ttp1513
a(S'G?OH?_ACQA?O'
(ttp1514
a(S'G@?`@_aGP@?_'
(ttp1515
a(S'G?OQ?OAGACOo'
(ttp1516
a(S'G?OGG`?W@GT_'
(ttp1517
a(S'G?_GC@D?@?Q_'
(ttp1518
a(S'G?O?@PAOAE?G'
(ttp1519
a(S'G?O?@?P@?J?G'
(ttp1520
a(S'G?_C?A?Op@?g'
(ttp1521
a(S'G?_C??PH?@A_'
(ttp1522
a(S'G?OO??PGAGOo'
(ttp1523
a(S'G?_???P?`BCG'
(ttp1524
a(S'G?_?E@D?@?Q_'
(ttp1525
a(S'G?OG??P?`B?G'
(ttp1526
a(S'G??O??kCIGPO'
(ttp1527
a(S'G?O?A@EOAAP?'
(ttp1528
a(S'G?OGA?QOQASO'
(ttp1529
a(S'G@?GEAC?@?Z?'
(ttp1530
a(S'G??CA@A?HPHG'
(ttp1531
a(S'G?_OC?GCPQAG'
(ttp1532
a(S'G?O?A?S?`F?G'
(ttp1533
a(S'G?OCOOAIA?Oo'
(ttp1534
a(S'G@?`?__CPBAG'
(ttp1535
a(S'G??CCA?SAYHG'
(ttp1536
a(S'G?OG??@Gg?OO'
(ttp1537
a(S'G?O???aDI?PO'
(ttp1538
a(S'G?_??@AW@?T_'
(ttp1539
a(S'G?O?A?CC`F?G'
(ttp1540
a(S'G??C@?aOPp?g'
(ttp1541
a(S'G??C??aHG?XO'
(ttp1542
a(S'G??CA?i@O?Oo'
(ttp1543
a(S'G??GAAGCo?SO'
(ttp1544
a(S'GAO?@?O?OX?G'
(ttp1545
a(S'G@?W?A?G`C[_'
(ttp1546
a(S'G?OCA?S?_F?G'
(ttp1547
a(S'GA??@?_Da?PO'
(ttp1548
a(S'G?QG??OCOB?G'
(ttp1549
a(S'G?_C@@AO@S?g'
(ttp1550
a(S'G???AOPI_?Oo'
(ttp1551
a(S'G???@?AA@R@G'
(ttp1552
a(S'GAO?@?_@a?PO'
(ttp1553
a(S'G?OOCOgG@?R_'
(ttp1554
a(S'GA?OA?R?AOOo'
(ttp1555
a(S'G???@A?Q@[?G'
(ttp1556
a(S'G?OO@A?SAY@G'
(ttp1557
a(S'G?OOA@k?@?R_'
(ttp1558
a(S'G@?_H@_G@WH?'
(ttp1559
a(S'G?_C?@AC@B@G'
(ttp1560
a(S'G?_?@@F?I?WO'
(ttp1561
a(S'G?OGCA?CAI@O'
(ttp1562
a(S'G?OGA?P?_A?O'
(ttp1563
a(S'G?_CCAO?AC?O'
(ttp1564
a(S'G?OGCAOG@D?G'
(ttp1565
a(S'G??C??GHAGPo'
(ttp1566
a(S'G?OG??CEAI@O'
(ttp1567
a(S'G?OG??ACQA?O'
(ttp1568
a(S'G?O?@?CGaCOo'
(ttp1569
a(S'G???A?P?_QGO'
(ttp1570
a(S'G?_??@AC@BDG'
(ttp1571
a(S'G???@?eIP@?_'
(ttp1572
a(S'G?O???@CgP?G'
(ttp1573
a(S'G?????aDI?XO'
(ttp1574
a(S'G?OGA?QCQA?O'
(ttp1575
a(S'G?O_C?_O@A?G'
(ttp1576
a(S'G?????CO`EGG'
(ttp1577
as(S'E'
I6
(I1
I1
tp1578
tp1579
(lp1580
(S'G?_w??@C`?S?'
(((I7
I1
t(I2
I-2
tp1581
tttp1582
a(S'G?_OUAO?@?Q?'
(((I7
I2
tg1581
tttp1583
a(S'G?_?CORGG?Oo'
(ttp1584
a(S'G???@GcE@B@G'
(ttp1585
a(S'GB_???@C`OW?'
(((I7
I0
tg1581
tttp1586
a(S'G?_?@HCCI?PO'
(ttp1587
a(S'G?_?CPACI?X?'
(ttp1588
a(S'GA?CA?p@g@?O'
(ttp1589
a(S'G@?_O?OGACQo'
(ttp1590
a(S'G?O?AGCOQAOO'
(ttp1591
a(S'G?_??HCOB?X_'
(ttp1592
a(S'G?O??_AHACOo'
(ttp1593
a(S'G?_OGB_C@?P?'
(((I7
I3
tg1581
tttp1594
a(S'G??CAO@IG?QO'
(ttp1595
a(S'G??GC@h?@?U_'
(ttp1596
a(S'G??G@OAI@@@_'
(ttp1597
a(S'G?_CCO@O@AAG'
(ttp1598
a(S'G?_OO?QCGA?W'
(ttp1599
a(S'G@?_@G_C@B@G'
(ttp1600
a(S'G??o@?PGaoOo'
(ttp1601
a(S'G??CA@EQBE@_'
(ttp1602
a(S'GA?GC_PW@?U_'
(ttp1603
a(S'G?OOQAAOAOO_'
(ttp1604
a(S'G??C@GcI@@@_'
(ttp1605
a(S'G?OGC?UCWE?W'
(ttp1606
a(S'G?OoA?`C`BCG'
(ttp1607
a(S'G?_C@HCOA?P_'
(ttp1608
a(S'G?OGC_ACY?SO'
(ttp1609
a(S'G?OGGP?W@GP_'
(ttp1610
a(S'G?OGAGC?W?OO'
(ttp1611
a(S'G?_GCOWC@FAG'
(ttp1612
a(S'G?OGCGCO@E?G'
(ttp1613
a(S'G?OCAOG?`F?G'
(ttp1614
a(S'G?OgG@?CaCSO'
(ttp1615
a(S'G?OGC_@W@?U_'
(ttp1616
a(S'G?OGC@e?@?P_'
(ttp1617
a(S'G?OOCGcG@?P_'
(ttp1618
a(S'G??gG@?CaC[O'
(ttp1619
a(S'G??CGP?SAeAG'
(ttp1620
a(S'G??C@GC?W`?G'
(ttp1621
a(S'G?_OGB_C@?^?'
(ttp1622
a(S'G?OCAOG?Y?QO'
(ttp1623
a(S'G??GC@e?@?X_'
(ttp1624
a(S'G??OCGcG@?X_'
(ttp1625
a(S'G?OCAGCIA?Po'
(ttp1626
a(S'G?OWIB?C@?V?'
(ttp1627
a(S'G??WIB?C@?^?'
(ttp1628
a(S'G?OC@GcIA?Po'
(ttp1629
a(S'G?OC@GCA?F?G'
(ttp1630
as(S'E'
I7
I1
tp1631
(lp1632
(S'G?OGC@OK????'
(ttp1633
a(S'G?_OD?o????_'
(ttp1634
a(S'G?OG[??G@???'
(ttp1635
a(S'G@?GEA?C??O?'
(ttp1636
a(S'G?OGBB??@???'
(ttp1637
a(S'G?OGBAOO????'
(ttp1638
a(S'G?`?@?OKg??O'
(ttp1639
a(S'G@?GEA?C??P?'
(ttp1640
a(S'G?__S??CA?O?'
(ttp1641
a(S'GA@?C?_CB???'
(ttp1642
a(S'G?`?I?OO??O?'
(ttp1643
a(S'G@?GEAO???O?'
(ttp1644
a(S'G?`?I?OS????'
(ttp1645
a(S'G?OgU???@???'
(ttp1646
a(S'G?OgS???@?O?'
(ttp1647
a(S'G?OGB@??H?@?'
(ttp1648
a(S'G?OKK???@C??'
(ttp1649
a(S'G?OGBA?O@???'
(ttp1650
a(S'G?_KW??C???O'
(ttp1651
a(S'G?_C??_Op??_'
(ttp1652
a(S'G?Pg???C_@??'
(ttp1653
a(S'GC?CAB?G@???'
(ttp1654
a(S'G?OGE@R?G???'
(ttp1655
a(S'G?_KH??O??@?'
(ttp1656
a(S'G?OGB@@?H???'
(ttp1657
a(S'G?OKD???OA??'
(ttp1658
a(S'G?RG??OGG@??'
(ttp1659
a(S'G?R???OGG@O?'
(ttp1660
a(S'G?_CC@OC?A?G'
(ttp1661
a(S'G?Q?A@@?H??G'
(ttp1662
a(S'G?OS??`?_AO?'
(ttp1663
a(S'G?OK?@@?IG??'
(ttp1664
a(S'G?P?A@ASAA??'
(ttp1665
a(S'GA@O???CAGO?'
(ttp1666
a(S'G?Oc??aGO@??'
(ttp1667
a(S'G?`CI??S????'
(ttp1668
a(S'G@?_R??G@???'
(ttp1669
a(S'GA?W???COGO?'
(ttp1670
a(S'G?POB?AOAA??'
(ttp1671
a(S'GA`O????@?Q?'
(ttp1672
a(S'G?_K???OP?A_'
(ttp1673
a(S'G?_KG??O@?@?'
(ttp1674
a(S'G?p_???C?G?O'
(ttp1675
a(S'GAPK????_@??'
(ttp1676
a(S'G?Oc??A?P@?G'
(ttp1677
a(S'G?OOB??CGC??'
(ttp1678
a(S'G?OgS???@??G'
(ttp1679
a(S'GCo???A@?A?O'
(ttp1680
a(S'G?`CI??O??O?'
(ttp1681
a(S'G?oS????_C?_'
(ttp1682
a(S'GA@?E@?G@?Q?'
(ttp1683
a(S'GC?_@?_K_??O'
(ttp1684
a(S'GA?OQ??CB???'
(ttp1685
a(S'GAPGF???????'
(ttp1686
a(S'G?P_???C`@?G'
(ttp1687
a(S'G?OGS??C@A??'
(ttp1688
a(S'G@?G@AaO??P?'
(ttp1689
a(S'G?O?BO@Gg@??'
(ttp1690
a(S'GA@G@??Ca?OO'
(ttp1691
a(S'G?_C@?q@O??o'
(ttp1692
a(S'G?aC??OKW??O'
(ttp1693
a(S'G?P?C@ACAA?G'
(ttp1694
a(S'G?P?B?a?G@??'
(ttp1695
a(S'GC??@?S?HH?G'
(ttp1696
a(S'G?Oc??a?O@?G'
(ttp1697
a(S'G?O???OGgT??'
(ttp1698
a(S'G?O??AC?AKOO'
(ttp1699
a(S'G?OG??OO_E??'
(ttp1700
a(S'G?_CC@_C?A??'
(ttp1701
a(S'G?R???OGG@?G'
(ttp1702
a(S'G?P???_O`??g'
(ttp1703
a(S'G?`?G?OOA?O?'
(ttp1704
a(S'G?__P??SA???'
(ttp1705
a(S'G?OOA?OGO??o'
(ttp1706
a(S'G?OW???COI??'
(ttp1707
a(S'G?_OX??G@???'
(ttp1708
a(S'G?PG???Ob??_'
(ttp1709
a(S'G?_CB@??G?@?'
(ttp1710
a(S'G?_CC@OG??O_'
(ttp1711
a(S'G?O?@A?H_D??'
(ttp1712
a(S'G?OG?@?ObC?_'
(ttp1713
a(S'G?O?A?s?w@??'
(ttp1714
a(S'G??C@_@D?I?W'
(ttp1715
a(S'G?_CCGC?Q?O_'
(ttp1716
a(S'GA@CA??K_@??'
(ttp1717
a(S'G?OS??A?OA?G'
(ttp1718
a(S'G@_???P?_OO_'
(ttp1719
a(S'G@?G@?r??A?o'
(ttp1720
a(S'GA@C@??G_@?G'
(ttp1721
a(S'GC?O@?_CGI?W'
(ttp1722
a(S'G?_CBG@@???o'
(ttp1723
a(S'G?QG??p?G@??'
(ttp1724
a(S'GG??@@C?HC?G'
(ttp1725
a(S'GC??@?Q@@B?G'
(ttp1726
a(S'GC_C@?A@A?Oo'
(ttp1727
a(S'GCOg@???a?OO'
(ttp1728
a(S'GC?_@?OGa?OO'
(ttp1729
a(S'GC?GE@C?@AQ?'
(ttp1730
a(S'G?_O@?O?_C?_'
(ttp1731
a(S'GA@GE??O@?Q?'
(ttp1732
a(S'GAPO????AGO?'
(ttp1733
a(S'G?POA?ASAA??'
(ttp1734
a(S'G?OGQB??@???'
(ttp1735
a(S'G@@GJ???@???'
(ttp1736
a(S'GAOW????OGO?'
(ttp1737
a(S'GCO?@?C?HH?G'
(ttp1738
a(S'G?OGQ@?C?A??'
(ttp1739
a(S'G?QG?@@?H??G'
(ttp1740
a(S'G@?cQ???B???'
(ttp1741
a(S'G?O?APASAE??'
(ttp1742
a(S'GE?????D@@AG'
(ttp1743
a(S'G?OOE??C?E?G'
(ttp1744
a(S'GC????OOaQO?'
(ttp1745
a(S'G?o???ACGO@O'
(ttp1746
a(S'GC?CA?SG_@O_'
(ttp1747
a(S'G@?GO?OGG@O?'
(ttp1748
a(S'GG??@?`@@B??'
(ttp1749
a(S'GCOkA???_@??'
(ttp1750
a(S'G?o????OOOA_'
(ttp1751
a(S'GA@K???C_@??'
(ttp1752
a(S'GCO????GgPO?'
(ttp1753
a(S'G?`C???O_AO?'
(ttp1754
a(S'G?_OKA_C@?R?'
(ttp1755
a(S'GC?CA?a@G?OO'
(ttp1756
a(S'G?OOCOACQA?G'
(ttp1757
a(S'G?QO?@@CAA?G'
(ttp1758
a(S'GC??A?cCg?OO'
(ttp1759
a(S'G?OGW??CA??O'
(ttp1760
a(S'G?PG???O`??g'
(ttp1761
a(S'G?__P??OA?O?'
(ttp1762
a(S'GCo?@?C?_A?O'
(ttp1763
a(S'G????@?C_QHG'
(ttp1764
a(S'G?O??@?G_O@_'
(ttp1765
a(S'G?_CC@b?H???'
(ttp1766
a(S'GGO???`@@B??'
(ttp1767
a(S'G?_CC@c?@?B_'
(ttp1768
a(S'G?OG?@@?IGS?'
(ttp1769
a(S'G?_C@@@?IG??'
(ttp1770
a(S'G?OO??OGGK??'
(ttp1771
a(S'G???C?`@?AY?'
(ttp1772
a(S'G?O???OOaU??'
(ttp1773
a(S'G?O?AACK_@@?'
(ttp1774
a(S'G?O_@?aGO@??'
(ttp1775
a(S'G@?GO?OGH@??'
(ttp1776
a(S'G?O_@?a?O@?G'
(ttp1777
a(S'G?`???OO`A??'
(ttp1778
a(S'G?_C??_Cw??O'
(ttp1779
a(S'G?O?A?_@OBQ?'
(ttp1780
a(S'G?OG??OGo??o'
(ttp1781
a(S'GA@CA??OA?QO'
(ttp1782
a(S'GC_?@?CC_A?O'
(ttp1783
a(S'G?OG??a?G@P?'
(ttp1784
a(S'GA`OE???@?Q?'
(ttp1785
a(S'G?a_??OC?C?O'
(ttp1786
a(S'G?P?B@AOAA??'
(ttp1787
a(S'G@?K??O?OG?_'
(ttp1788
a(S'GCO?A?C?h@?G'
(ttp1789
a(S'G?O??GSCOA?W'
(ttp1790
a(S'G?O_??P?`@?G'
(ttp1791
a(S'G?OGW??CA?OO'
(ttp1792
a(S'G?OGCGCSQA??'
(ttp1793
a(S'G?OGO@?G@?O_'
(ttp1794
a(S'GC?C??a@I?OO'
(ttp1795
a(S'G?_CS??C?A?W'
(ttp1796
a(S'G?`?G?OSA???'
(ttp1797
a(S'G?_CC@bCG???'
(ttp1798
a(S'G?O?AOA?X@?G'
(ttp1799
a(S'G???@_C?PJ?G'
(ttp1800
a(S'G?O?O?c?`B??'
(ttp1801
a(S'GC?CA?q@?A?O'
(ttp1802
a(S'GA@K@??G_??O'
(ttp1803
a(S'G?`???OO_AO?'
(ttp1804
a(S'G?O?GG@D@@?G'
(ttp1805
a(S'G?OGP@?G??O_'
(ttp1806
a(S'G?OKCGCOQA??'
(ttp1807
a(S'GG_??AS?Q?OO'
(ttp1808
a(S'G?O?AGSGW@??'
(ttp1809
a(S'G?O?AO?SoA?G'
(ttp1810
a(S'G??@?_ACPB?G'
(ttp1811
a(S'G?OW??_?_AP?'
(ttp1812
a(S'G?OK???OOI??'
(ttp1813
a(S'G?P???_Ob??_'
(ttp1814
a(S'G?O?AACC_@@G'
(ttp1815
a(S'G?P_???C_@?G'
(ttp1816
a(S'G?OGBB??@?@?'
(ttp1817
a(S'G?O?A?s?oB??'
(ttp1818
a(S'G?OGCGC?PAO?'
(ttp1819
a(S'G?OGP@?C?A?G'
(ttp1820
a(S'G?o??@@?HOA?'
(ttp1821
a(S'G@AC??_SAA@?'
(ttp1822
a(S'G?OGAAADO@??'
(ttp1823
a(S'G?_OW?OCOAAW'
(ttp1824
a(S'G?OG??OKw??O'
(ttp1825
a(S'G?OGW??C@@?G'
(ttp1826
a(S'G?_OD?O??C?g'
(ttp1827
a(S'G?OGC?OCOA?W'
(ttp1828
a(S'G?OGC?OCOA??'
(ttp1829
a(S'G?O?BGCGW@??'
(ttp1830
a(S'G?OO@?`?_AO?'
(ttp1831
a(S'GK????OOAAS?'
(ttp1832
a(S'GC??A?SC`B?G'
(ttp1833
a(S'GG??AAS?Q?OO'
(ttp1834
a(S'G?_C?@@?HOA?'
(ttp1835
a(S'G?_S???GO?Q_'
(ttp1836
a(S'G?`C???O`A??'
(ttp1837
a(S'G?_?CO@W@?Q_'
(ttp1838
a(S'G??C@GGD?E?W'
(ttp1839
a(S'G?`?@?Q?I?OO'
(ttp1840
a(S'GC??A?SCI?QO'
(ttp1841
a(S'GCO?@?A@@B?G'
(ttp1842
a(S'G?QGGBC?ACOO'
(ttp1843
a(S'G?OGC@?G@?P_'
(ttp1844
a(S'G?OGB@?O_C?_'
(ttp1845
a(S'G?O@AA_Op@?_'
(ttp1846
a(S'GC?G@@AOA?S_'
(ttp1847
a(S'G?_OEOG?PAQ?'
(ttp1848
a(S'GC_WC?A?H?S?'
(ttp1849
a(S'G@O???O?_S?g'
(ttp1850
a(S'GCO?A?C?`B?G'
(ttp1851
a(S'G?OOA??W?CQ_'
(ttp1852
a(S'G?_?OAS?a?OO'
(ttp1853
a(S'G?O?CGC?BE??'
(ttp1854
a(S'G???@O@E?I?W'
(ttp1855
a(S'G?O?AO@Gg@O?'
(ttp1856
a(S'GC_CC?C?@@Ag'
(ttp1857
a(S'GC_????O_?S_'
(ttp1858
a(S'G?_K???CW?AO'
(ttp1859
a(S'G?O?AO@Gh@??'
(ttp1860
a(S'G?O_AJ??ACOO'
(ttp1861
a(S'G?`_???CA?QO'
(ttp1862
a(S'G?O_??OGq??O'
(ttp1863
a(S'G?Og??O?q??O'
(ttp1864
a(S'GC????OGgPO?'
(ttp1865
a(S'G?Og??O?o??W'
(ttp1866
a(S'G?PO???CAI??'
(ttp1867
a(S'G??C@GG?WP?G'
(ttp1868
a(S'G?OGCOA?AEOO'
(ttp1869
a(S'G?OG?GCOAEOO'
(ttp1870
a(S'G@?G@G@W??O_'
(ttp1871
a(S'G???@OAA@F?G'
(ttp1872
a(S'G?a?@@?W@?@_'
(ttp1873
a(S'G?_C@OA?Q??o'
(ttp1874
a(S'G??CA_C?Q?Qo'
(ttp1875
a(S'G?OS???COI?G'
(ttp1876
a(S'G?O?CGC?PA?G'
(ttp1877
a(S'G?O???Q?GS?W'
(ttp1878
a(S'G?_?@AC?_COO'
(ttp1879
a(S'G?O?AOAAQAOO'
(ttp1880
a(S'G???AGG@?APO'
(ttp1881
a(S'G????@?G_OX_'
(ttp1882
a(S'G???@?a@O`O_'
(ttp1883
a(S'GCoCA?A@?A?O'
(ttp1884
a(S'GCO?A?CGH@A?'
(ttp1885
a(S'G???GO@E@H?G'
(ttp1886
a(S'GC_cC???@@AG'
(ttp1887
a(S'G?PO???C@I?G'
(ttp1888
a(S'G?OG??aCG?PO'
(ttp1889
a(S'GAOCA?_@O@A?'
(ttp1890
a(S'G?_?PP?CgA?W'
(ttp1891
a(S'G@AC??OSAE?G'
(ttp1892
a(S'G@A?A?OW@C?_'
(ttp1893
a(S'GCO????OaQO?'
(ttp1894
a(S'GCOCA?C?g@?G'
(ttp1895
a(S'G?_?EOPO@?Q_'
(ttp1896
a(S'G@?GBG@O@??_'
(ttp1897
a(S'G@AG??OCGE?W'
(ttp1898
a(S'GCOC??AHG@?G'
(ttp1899
a(S'G?_CC@e?@?P_'
(ttp1900
a(S'G?OGA?R?G@?O'
(ttp1901
a(S'G??CAGGD?E?O'
(ttp1902
a(S'G?O?A?CGGDQ?'
(ttp1903
a(S'G?_CA@@?G@Q?'
(ttp1904
a(S'G?OOA@r??A?_'
(ttp1905
a(S'G?Q_??_G?@P?'
(ttp1906
a(S'GCOCA?CG_@O_'
(ttp1907
a(S'GGO??@C?HC?G'
(ttp1908
a(S'G?_CC@DG@?A_'
(ttp1909
a(S'G?_CC@D?B?A_'
(ttp1910
a(S'G?Q?GO?GO@O?'
(ttp1911
a(S'G??C@@G?gS?G'
(ttp1912
a(S'G?OG@@@?HG?G'
(ttp1913
a(S'G?OGA?OKw@?O'
(ttp1914
a(S'G?OG??OCoA?W'
(ttp1915
a(S'GCOG??AOAASO'
(ttp1916
a(S'G?OG??OWo?O_'
(ttp1917
a(S'G??C?GGHQ?Oo'
(ttp1918
a(S'G?OGO@?C@A?G'
(ttp1919
a(S'G?OGA@@?H?Q?'
(ttp1920
a(S'GC?C@?a@A?Oo'
(ttp1921
a(S'G?_CA@@?G?QO'
(ttp1922
a(S'G?OO??Q?OA?G'
(ttp1923
a(S'G?_?@ACC_C?O'
(ttp1924
a(S'G?POA?AOAAO?'
(ttp1925
a(S'G?OG??_O`?@_'
(ttp1926
a(S'G?OGO@?CAA??'
(ttp1927
a(S'G?OGAGCAOAOO'
(ttp1928
a(S'GC?GC?QGG?SO'
(ttp1929
a(S'GG?C@@@@?A?G'
(ttp1930
a(S'G?_CC@d?@?A_'
(ttp1931
a(S'G@?CA@S?ACA_'
(ttp1932
a(S'G??GP_C?aAOO'
(ttp1933
a(S'G?_?COPOB?A_'
(ttp1934
a(S'G@?G@?_CW??O'
(ttp1935
a(S'G?_CC?OKW??O'
(ttp1936
a(S'G?_CGG?SQ???'
(ttp1937
a(S'G?_???OP?CA_'
(ttp1938
a(S'G??C?A?OPoAG'
(ttp1939
a(S'GC?G@@A?A?So'
(ttp1940
a(S'G?OCAOGG_@P_'
(ttp1941
a(S'G?OO??OCGK?G'
(ttp1942
a(S'G?_O??OGO?Q_'
(ttp1943
a(S'G?O???Q?HT?G'
(ttp1944
a(S'G???@OGCoB?G'
(ttp1945
a(S'G?_CS??C?B?G'
(ttp1946
a(S'GCOgA???_?OO'
(ttp1947
a(S'G?_O??OO@CAg'
(ttp1948
a(S'G?O???OO_U?G'
(ttp1949
a(S'G???GG@E@@CG'
(ttp1950
a(S'GC?GA?S?_AOO'
(ttp1951
a(S'G?_?C@c?H?R?'
(ttp1952
a(S'G??CG_@C_O?W'
(ttp1953
a(S'GC?G??QOAASO'
(ttp1954
a(S'G?OOA?_?OAQ?'
(ttp1955
a(S'G@@?@?OSAI?G'
(ttp1956
a(S'G?O_??OGo??W'
(ttp1957
a(S'GCO?A?CC`B?G'
(ttp1958
a(S'G??CAOGC`B@G'
(ttp1959
a(S'G?O??OACOA?W'
(ttp1960
a(S'G???@@A@AcO_'
(ttp1961
a(S'G?_?@?CCGG@O'
(ttp1962
a(S'GA?CA?OD_D?G'
(ttp1963
a(S'G?_???OKw?CO'
(ttp1964
a(S'G?OGCGCOQAO?'
(ttp1965
a(S'G?a?@@@CI?OO'
(ttp1966
a(S'G?P???_Oa?O_'
(ttp1967
a(S'GA@C@??Ga?OO'
(ttp1968
a(S'GCOCA?C?_B?G'
(ttp1969
a(S'G?OO@@OGGK?G'
(ttp1970
a(S'G??GCGC?PAW?'
(ttp1971
a(S'GA?g@@?CaCSO'
(ttp1972
a(S'G?`?@@?DgA?W'
(ttp1973
a(S'G??GA_S?oAOO'
(ttp1974
a(S'G?`?C?QCGACW'
(ttp1975
a(S'G?PG???Ci?OO'
(ttp1976
a(S'G?OG??QCGC?W'
(ttp1977
a(S'GA????OGq?SO'
(ttp1978
a(S'GCOGC?A?I?SO'
(ttp1979
a(S'GC?_A?OOA?QO'
(ttp1980
a(S'G?_C??bCG@?O'
(ttp1981
a(S'G?_C??oOo??_'
(ttp1982
a(S'G?OGAAQ@O@??'
(ttp1983
a(S'GC?_A?OG_?OO'
(ttp1984
a(S'GA?CA?_DO@A?'
(ttp1985
a(S'GA?G@@?@@H@g'
(ttp1986
a(S'G?OG@@?OaE?_'
(ttp1987
a(S'G?aC?@?W@?@_'
(ttp1988
a(S'G???@?O@_c?w'
(ttp1989
a(S'G???EPGG@?R_'
(ttp1990
a(S'G????OWCOAAW'
(ttp1991
a(S'G?O_??OGq?OO'
(ttp1992
a(S'G?OCA?cAO@A_'
(ttp1993
a(S'G??OE_cCG?R?'
(ttp1994
a(S'G?O?A?cAW?QO'
(ttp1995
a(S'G?O?A?cAOAQO'
(ttp1996
a(S'G?A?GO?CO_?W'
(ttp1997
a(S'G?O?@?`@_A?W'
(ttp1998
a(S'G???A_CCY?QO'
(ttp1999
a(S'G?O?AGCGW@O?'
(ttp2000
a(S'GCO?A?CCI?QO'
(ttp2001
a(S'G?aC??P?I?OO'
(ttp2002
a(S'G?P?A@AOAAO?'
(ttp2003
a(S'GA@CA??G_?OO'
(ttp2004
a(S'G??CA_PH_?Oo'
(ttp2005
a(S'GC_CC?CG@@A_'
(ttp2006
a(S'GCOGC?AGG?SO'
(ttp2007
a(S'G?OGBAA@O@??'
(ttp2008
a(S'GGOC?@@@?A?G'
(ttp2009
a(S'G?OG??OGo?Oo'
(ttp2010
a(S'G?_O?@?G@?R_'
(ttp2011
a(S'G@?GO?OGG?OO'
(ttp2012
a(S'GC?CA?SG`@?_'
(ttp2013
a(S'G?_CCOACI?PO'
(ttp2014
a(S'G?aC?@@CI?OO'
(ttp2015
a(S'G?_OB?R?OA?o'
(ttp2016
a(S'GC??A?SGH@A?'
(ttp2017
a(S'G?_CCOA?I?XO'
(ttp2018
a(S'G?O?APAOBE??'
(ttp2019
a(S'G?PG???Oa?O_'
(ttp2020
a(S'G@?G??OCGEAW'
(ttp2021
a(S'G@?G@?_S?A@?'
(ttp2022
a(S'G?O??O@CAI?O'
(ttp2023
a(S'G?O???_SoQ??'
(ttp2024
a(S'G?_CS??C@B?G'
(ttp2025
a(S'G?QG??`?H@??'
(ttp2026
a(S'G???@?CCGg@W'
(ttp2027
a(S'GAOGC@??ACU?'
(ttp2028
a(S'G?O_A?oCw@?O'
(ttp2029
a(S'G?OGAAA@P@??'
(ttp2030
a(S'G?__S?O?@@Ag'
(ttp2031
a(S'G?QG?@@?AAOO'
(ttp2032
a(S'G?O?AGCGX@??'
(ttp2033
a(S'G?_CC?_CG?PO'
(ttp2034
a(S'G?O?@@@?HW?G'
(ttp2035
a(S'G?O?@@@?IW?G'
(ttp2036
a(S'GCO?@?CGHH?G'
(ttp2037
a(S'G?O?A?COAEQO'
(ttp2038
a(S'GC????OP@I?G'
(ttp2039
a(S'G??CA_S?Q?Qo'
(ttp2040
a(S'G?a?@@?W@?P_'
(ttp2041
a(S'G?OG??Q?HD?G'
(ttp2042
a(S'G?O?@?`@aAOO'
(ttp2043
a(S'G?O?@?@Hg@?G'
(ttp2044
a(S'G???@?C?Hh@G'
(ttp2045
a(S'GA@GC??C@@AG'
(ttp2046
a(S'G?Q?A@@?AAOO'
(ttp2047
a(S'G?P?A?a?H@??'
(ttp2048
a(S'GC??A?S?I?QO'
(ttp2049
a(S'GCOGA?A@@@?_'
(ttp2050
a(S'G?OOQ@ECGA?G'
(ttp2051
a(S'G?OOAOaOOAO?'
(ttp2052
a(S'GAOG@@??aCSO'
(ttp2053
a(S'G?_C@G@HA?Oo'
(ttp2054
a(S'G?_CC@D?@?Ag'
(ttp2055
a(S'G??G@@G@@H@g'
(ttp2056
a(S'G?_C@@K?aCOo'
(ttp2057
a(S'G?_CCPA?I?X?'
(ttp2058
a(S'G?OGC_CO@ABG'
(ttp2059
a(S'G?OCGGC?O_?W'
(ttp2060
a(S'G??CCGG?HS?G'
(ttp2061
a(S'G@??@?O?OW?g'
(ttp2062
a(S'G??G@GGOAATO'
(ttp2063
a(S'G?O???QDOB?G'
(ttp2064
a(S'G?OG?GDOAAOO'
(ttp2065
a(S'G?QGG?s?W@?O'
(ttp2066
a(S'GA?GC@?CACU?'
(ttp2067
a(S'GC?C@?OO_Q?G'
(ttp2068
a(S'G?_C@OA?Q?Oo'
(ttp2069
a(S'G?_?@HCW@?P_'
(ttp2070
a(S'G?O?@?e?W@?G'
(ttp2071
a(S'G@?G@?OGGD?_'
(ttp2072
a(S'G?O??ACGp@?G'
(ttp2073
a(S'G?OOO?_CI?OO'
(ttp2074
a(S'G?O?@?`@aA?O'
(ttp2075
a(S'G??@@_QGQ?Oo'
(ttp2076
a(S'G?_???OGo?So'
(ttp2077
a(S'G?O???OCoQ?W'
(ttp2078
a(S'G?OCA?SA_D?g'
(ttp2079
a(S'GA?G@@?CaCSO'
(ttp2080
a(S'GAOCA?O@_D?G'
(ttp2081
a(S'G?OO@Q?SQI?G'
(ttp2082
a(S'G?O?@?_Hg@@?'
(ttp2083
a(S'G?O?A?OT_E?G'
(ttp2084
a(S'G?_CC@_?HOB?'
(ttp2085
a(S'G??CAOAAA?Po'
(ttp2086
a(S'G??C@GG@?E?W'
(ttp2087
a(S'G??CC_PHAGOo'
(ttp2088
a(S'G?_O@?OCgE?W'
(ttp2089
a(S'GA@CA@A@A?Oo'
(ttp2090
a(S'G?O?A?_TOAA?'
(ttp2091
a(S'G?QO??_?AAPO'
(ttp2092
a(S'G?_C?AAO@@@G'
(ttp2093
a(S'G?_C??_SoA??'
(ttp2094
a(S'G?O?A?C?ICQO'
(ttp2095
a(S'GC?_A?OO`@?g'
(ttp2096
a(S'G?O?AACG_@P?'
(ttp2097
a(S'G?_?CGCCY?WO'
(ttp2098
a(S'G?__P@??a?Oo'
(ttp2099
a(S'G?OG??_O_?P_'
(ttp2100
a(S'G???@_CGa?Po'
(ttp2101
a(S'GC?C??a@A?Oo'
(ttp2102
a(S'GC?CA?c?_?Oo'
(ttp2103
a(S'G?O?AGCAACOo'
(ttp2104
a(S'G@?C@@Q?AS?g'
(ttp2105
a(S'G@?CG?cGOHP_'
(ttp2106
a(S'G??CAOGGH@B?'
(ttp2107
a(S'G?O???QCGS?W'
(ttp2108
a(S'G?_???_O`?T_'
(ttp2109
a(S'G?OCA?eAO?Oo'
(ttp2110
a(S'G?_G@PAO@?P_'
(ttp2111
a(S'G?_WCAA?@?T?'
(ttp2112
a(S'G?O?AO@IG?QO'
(ttp2113
a(S'G???AOPI?@Q_'
(ttp2114
a(S'G???@?UIQ?Oo'
(ttp2115
a(S'GCO?A?C?I?QO'
(ttp2116
a(S'G???@GGD?E?W'
(ttp2117
a(S'GCO?@?C?_B?G'
(ttp2118
a(S'G?OO??_W@GP_'
(ttp2119
a(S'G?_COOAO@@?g'
(ttp2120
a(S'G?OGAAA@O@O?'
(ttp2121
a(S'GB??@???@W@G'
(ttp2122
a(S'G?aC?@@CGA?W'
(ttp2123
a(S'G?_?COPW@?A_'
(ttp2124
a(S'G?Q?C?_?AAPO'
(ttp2125
a(S'GC?GC?Q?I?SO'
(ttp2126
a(S'G@?G@I?C@B@G'
(ttp2127
a(S'G?O?C@bCGQ?G'
(ttp2128
a(S'G?_OEOWCOAA?'
(ttp2129
a(S'G?OGAGCA?COo'
(ttp2130
a(S'GA_???O?q?SO'
(ttp2131
a(S'G??OCGgG@?T_'
(ttp2132
a(S'G??G@_CCaA@O'
(ttp2133
a(S'G?_G@OAA@@@_'
(ttp2134
a(S'G?O?@ACGo@?G'
(ttp2135
a(S'G?_C@GcO@@@_'
(ttp2136
a(S'G?O@A@PGg@?_'
(ttp2137
a(S'G?_CGP?W@GP_'
(ttp2138
a(S'G?OG@GCOAE?O'
(ttp2139
a(S'G?OG?H@?AASO'
(ttp2140
a(S'G?_G??RO@@C_'
(ttp2141
a(S'GCOGA?A@?@O_'
(ttp2142
a(S'G?_C@GCO@@@g'
(ttp2143
a(S'G??C?G`BA?Oo'
(ttp2144
a(S'G?OCC@O?I[?G'
(ttp2145
a(S'G?OGCGCCAE?O'
(ttp2146
a(S'G?OGA@R@G@?_'
(ttp2147
a(S'G??@@`AGACOo'
(ttp2148
a(S'GC?GA?Q@@@?_'
(ttp2149
a(S'GC?GA?OO_?S_'
(ttp2150
a(S'G?_C@@@?HH?G'
(ttp2151
a(S'G?OG??a?H@@?'
(ttp2152
a(S'G?O?@?_DoB?G'
(ttp2153
a(S'G?O?GP?SAeAG'
(ttp2154
a(S'G?O@AHGOACO_'
(ttp2155
a(S'G?_???OWo?S_'
(ttp2156
a(S'G?_CA?@O@@A_'
(ttp2157
a(S'GC?G?@ACI?SO'
(ttp2158
a(S'G??C@@G?_U?G'
(ttp2159
a(S'G?O?@?OPOI?G'
(ttp2160
a(S'G?_CC?OW@C?_'
(ttp2161
a(S'G?OGCPAKGC??'
(ttp2162
a(S'G???@_CGaCOo'
(ttp2163
a(S'G?O?APAOAEO?'
(ttp2164
a(S'GC??@?SGHH?G'
(ttp2165
a(S'G???@?UAOB?G'
(ttp2166
a(S'G?O?C@SCAM?G'
(ttp2167
a(S'G???@?`@aAWO'
(ttp2168
a(S'G?_CC@c?@AB?'
(ttp2169
a(S'G??CCI?SQQGG'
(ttp2170
a(S'G??C??_Z?GP_'
(ttp2171
a(S'G??OAi?W@CS_'
(ttp2172
a(S'GCOGA??O_?S_'
(ttp2173
a(S'G?O??ACGa?PO'
(ttp2174
a(S'G??OC_PGAOQ_'
(ttp2175
a(S'G???@?CE_B@G'
(ttp2176
a(S'G???@AGDOH?G'
(ttp2177
a(S'G?O?APPGg@?_'
(ttp2178
a(S'G?_???RO@@Cg'
(ttp2179
a(S'G????ACC`d?G'
(ttp2180
a(S'G?OGOOAEAA?O'
(ttp2181
a(S'G?OGCO@OAAQ?'
(ttp2182
a(S'G?_?CG@CI?SO'
(ttp2183
a(S'G?b?C?ODGA?W'
(ttp2184
a(S'G??COOAIA?Oo'
(ttp2185
a(S'G?_C??QO@D?g'
(ttp2186
a(S'G?_?@OQO@D?g'
(ttp2187
a(S'G?OGA@?O@AB?'
(ttp2188
a(S'G?O?A?CCICQO'
(ttp2189
a(S'G?_CS??CAA?O'
(ttp2190
a(S'GCO????P@I?G'
(ttp2191
a(S'G??C@OGGHH@G'
(ttp2192
a(S'GCO?A?A@A?Oo'
(ttp2193
a(S'G?OOAG@C@B?G'
(ttp2194
a(S'G?_CC_SO@K?g'
(ttp2195
a(S'G?OCAGC?PB?G'
(ttp2196
a(S'G?OCAOA?W@?G'
(ttp2197
a(S'G?PGCACO@AAG'
(ttp2198
a(S'G?OG@?a?G@@?'
(ttp2199
a(S'G??CGGGHA?PO'
(ttp2200
a(S'G?_??GWOQASO'
(ttp2201
a(S'G?_?@GC?Q?Oo'
(ttp2202
a(S'G???A_S?Q?Qo'
(ttp2203
a(S'G?`?@?QO@@?g'
(ttp2204
a(S'G?OCAOGG`@@_'
(ttp2205
a(S'GCOCA?CG`@?_'
(ttp2206
a(S'G?_C@@?CIK?O'
(ttp2207
a(S'G?_CA@@?H@A?'
(ttp2208
a(S'G?OOA?C?ICQO'
(ttp2209
a(S'G?_COA?O`@?g'
(ttp2210
a(S'G?OGAG@B??Oo'
(ttp2211
a(S'G?OCCGCOAE?G'
(ttp2212
a(S'G??H?GGCI?PO'
(ttp2213
a(S'GCOC@??O_Q?G'
(ttp2214
a(S'G??C@??Q_Q@G'
(ttp2215
a(S'G@??A??W@CU_'
(ttp2216
a(S'G?_O??OW@CA_'
(ttp2217
a(S'G?_O@G@OA?O_'
(ttp2218
a(S'GCO?@?CGa?Oo'
(ttp2219
a(S'GC??@?S?_B?G'
(ttp2220
a(S'G?OGAOWO`D?g'
(ttp2221
a(S'G?_CA@@CG@A?'
(ttp2222
a(S'G??C@_cGo?Oo'
(ttp2223
a(S'G???@?OPOi?G'
(ttp2224
a(S'G?OCGB?HAKOO'
(ttp2225
a(S'G?OOGG`?AAPO'
(ttp2226
a(S'G?OGPAAHG@?O'
(ttp2227
a(S'G?OGC@K?AGP_'
(ttp2228
a(S'GC_?C?CC@BAG'
(ttp2229
a(S'G?O?AGCCW@?G'
(ttp2230
a(S'G???@OQIQ?Oo'
(ttp2231
a(S'G?O?CGCSAE?G'
(ttp2232
a(S'G??G@HKO@A@G'
(ttp2233
a(S'G?OCCG@GHP?G'
(ttp2234
a(S'GA?G@?q@W@?O'
(ttp2235
a(S'G??OAG[?@D?g'
(ttp2236
a(S'G?_?@?TO@H?g'
(ttp2237
a(S'G?OOA?v?GA?O'
(ttp2238
a(S'G?_?COPO@?Ag'
(ttp2239
a(S'G?O_Q@?C`B?G'
(ttp2240
a(S'G??CA_CGp@?_'
(ttp2241
a(S'G?_CC@cG@?R_'
(ttp2242
a(S'G??C@OAIA?Po'
(ttp2243
a(S'G?aC?@?W@?P_'
(ttp2244
a(S'G?OC@AAA?S?W'
(ttp2245
a(S'GA?CA?_D_?PO'
(ttp2246
a(S'G?`?@@CCGI?W'
(ttp2247
a(S'GC??A?Q@A?Oo'
(ttp2248
a(S'G?OGA@G?_?T_'
(ttp2249
a(S'G?O?AG@D@B?G'
(ttp2250
a(S'G?O?A?cAO?Qo'
(ttp2251
a(S'G??CCOiCI?PO'
(ttp2252
a(S'G@?C@I?SAq@G'
(ttp2253
a(S'G?OG@@G?aCSo'
(ttp2254
a(S'G?O?A@?CISQO'
(ttp2255
a(S'G??CA??J_COo'
(ttp2256
a(S'G?OGC?OSAE?G'
(ttp2257
a(S'G?O_??OGo@?G'
(ttp2258
a(S'G?__G@?CaC[O'
(ttp2259
a(S'G??CAOGGW?QO'
(ttp2260
a(S'G??OA_U?HD?G'
(ttp2261
a(S'G?OG?GCOQAOO'
(ttp2262
a(S'G?OOA??OAEU?'
(ttp2263
a(S'G?O??GgHO?Oo'
(ttp2264
a(S'G???@?@Ha?Wo'
(ttp2265
a(S'G@?G@G@O@??g'
(ttp2266
a(S'G?_CC@R?GA?G'
(ttp2267
a(S'G?OCA?_@_APO'
(ttp2268
a(S'G???G@CE@K?G'
(ttp2269
a(S'G?OOAG@O@ACG'
(ttp2270
a(S'G???C@cG@_R_'
(ttp2271
a(S'G?????Q?ISGO'
(ttp2272
a(S'G???@AGC_S?W'
(ttp2273
a(S'G?OCC@SGAK?_'
(ttp2274
a(S'G?OG@?_CoA?O'
(ttp2275
a(S'G?O?@A?GOW?O'
(ttp2276
a(S'G?OG??QCIC?O'
(ttp2277
a(S'G?aC??PO@@?g'
(ttp2278
a(S'G?OC?_CGQGOo'
(ttp2279
a(S'G?O?AACG`@@?'
(ttp2280
a(S'G?_C??RO@@?g'
(ttp2281
a(S'G?_OE???PA]?'
(ttp2282
a(S'G?OCCOg?IGPO'
(ttp2283
a(S'G?O?AOaAO?Oo'
(ttp2284
a(S'G??OGGgCAOPO'
(ttp2285
a(S'G?P?C?eCGA?W'
(ttp2286
a(S'G?OOAAG?QOQO'
(ttp2287
a(S'G?_CC@c?@?R_'
(ttp2288
a(S'G?OG?GSOAE?O'
(ttp2289
a(S'G?OOA?CGGCQO'
(ttp2290
a(S'G?_CG?OO@D?g'
(ttp2291
a(S'G?_OC?b?@?[_'
(ttp2292
a(S'G??OA@i?@?T_'
(ttp2293
a(S'G?O???Q@OB?G'
(ttp2294
a(S'G?_OCGgC@AD?'
(ttp2295
a(S'G??C@AAA?S?W'
(ttp2296
a(S'G?OOGO_SOaAG'
(ttp2297
a(S'G?_CC@C?ACY_'
(ttp2298
a(S'G?OG??aCI?PO'
(ttp2299
a(S'G@?_@?QGQoOo'
(ttp2300
a(S'G?OCEPGG@?R_'
(ttp2301
a(S'G?OOQ?QOAQ?_'
(ttp2302
a(S'G??CO_QHA?Oo'
(ttp2303
a(S'GA?g?@?CaC[O'
(ttp2304
a(S'G?OGCOQGHD?G'
(ttp2305
a(S'G?O_A?o?w@?O'
(ttp2306
a(S'GAOCA?_@_?PO'
(ttp2307
a(S'G@?_@O`?aAPO'
(ttp2308
a(S'G?OG?GSOQAOO'
(ttp2309
a(S'G??OAGGW@?T_'
(ttp2310
a(S'G?OC@O?O_e?G'
(ttp2311
a(S'G?O?COa?AAPO'
(ttp2312
a(S'G?Og??O?o@?G'
(ttp2313
a(S'G@?`@_QGQ?Oo'
(ttp2314
a(S'G?OGCG@CI?SO'
(ttp2315
a(S'G??CCOgW@?R_'
(ttp2316
a(S'G@?CAHK?@C?g'
(ttp2317
a(S'G?O?A?CGHDA?'
(ttp2318
a(S'G???AGCCPBGG'
(ttp2319
a(S'G?_CCAc?@@B?'
(ttp2320
a(S'G??GC@cC@aB?'
(ttp2321
a(S'G?O?AGCGP@?_'
(ttp2322
a(S'G?_OWOWCOAAW'
(ttp2323
a(S'G?OCA?cAg?PO'
(ttp2324
a(S'G?OCC@S?AM?G'
(ttp2325
a(S'G?O?@?`D_B?G'
(ttp2326
a(S'G??CC@cG@_R_'
(ttp2327
a(S'G??OAAgO@?V?'
(ttp2328
a(S'G??OG`_G@GT_'
(ttp2329
a(S'G??CAOAAQ?Oo'
(ttp2330
a(S'G???@GGDGD?G'
(ttp2331
a(S'G???@?_@aAXO'
(ttp2332
a(S'GC??@?SGa?Oo'
(ttp2333
a(S'G?OCA?_@OBA?'
(ttp2334
a(S'G?_?P@CCgA?W'
(ttp2335
a(S'G?OO??OSAM?G'
(ttp2336
a(S'G?OG@HCOAAP?'
(ttp2337
a(S'G?OG@?_Gg?PO'
(ttp2338
a(S'G?O???OP@M?G'
(ttp2339
a(S'G?O???SGHL?G'
(ttp2340
a(S'G?_C@@@CGH?G'
(ttp2341
a(S'G?OCAOGGo?Oo'
(ttp2342
a(S'G?_GCO@O@?Q_'
(ttp2343
a(S'G??CCGCA@E?G'
(ttp2344
a(S'G?_CGP?C@BBG'
(ttp2345
a(S'G??CCOaCI_PO'
(ttp2346
a(S'G?OGSAAGG?OO'
(ttp2347
a(S'G?OG??aCG@@?'
(ttp2348
a(S'G???AOQAQ?Oo'
(ttp2349
a(S'G?OOG__W@GT_'
(ttp2350
a(S'G?OGAAG?o?SO'
(ttp2351
a(S'G?OGC??OQAU?'
(ttp2352
a(S'G?_O@I?SAQH?'
(ttp2353
a(S'G?OGCOA?AAPO'
(ttp2354
a(S'G?_?COQCGE?W'
(ttp2355
a(S'G?_?COR?I?WO'
(ttp2356
a(S'G?OG?@?OaCO_'
(ttp2357
a(S'G?OGC?_CI?PO'
(ttp2358
a(S'G?_?C@c?@?R_'
(ttp2359
a(S'G?OOIa?CAORO'
(ttp2360
a(S'G?_C@@?O@K?g'
(ttp2361
a(S'G?O?A?_PO?Q_'
(ttp2362
a(S'G?_C@HG?HP@G'
(ttp2363
a(S'G?OOQAACAQ?O'
(ttp2364
a(S'G?OGAOA?P@?_'
(ttp2365
a(S'G??GGOGCa?PO'
(ttp2366
a(S'G@??AAW?QOQO'
(ttp2367
a(S'G?OGCGcO@?P_'
(ttp2368
a(S'GA_OGG?CAOXO'
(ttp2369
a(S'G?OG@@G?iCSO'
(ttp2370
a(S'G?_CCOA?QAWO'
(ttp2371
a(S'G?OCCOa?AAPO'
(ttp2372
a(S'G?_??HDCI?WO'
(ttp2373
a(S'G?OCAGCGP@?_'
(ttp2374
a(S'G?OCA?cA_?Po'
(ttp2375
a(S'G?O_H@?G@X@G'
(ttp2376
a(S'G?_D?_QO@D?g'
(ttp2377
a(S'G?OOA@b?@AC_'
(ttp2378
a(S'G??G@G@J@@?_'
(ttp2379
a(S'G?OG?HCOAAP?'
(ttp2380
a(S'G?O???QHQ?Oo'
(ttp2381
a(S'G?O?@?`@_B?G'
(ttp2382
a(S'G?OG@@?GHH@G'
(ttp2383
a(S'G?OCAOAEQA?O'
(ttp2384
a(S'G?_C@@@CIG?O'
(ttp2385
a(S'G?OG@GCOQAOO'
(ttp2386
a(S'G???A?CCICYO'
(ttp2387
a(S'G?OO??OGHL?G'
(ttp2388
a(S'G?_CC?_CW?OO'
(ttp2389
a(S'G?O??@?IASQo'
(ttp2390
a(S'G?OOGO_GOHP_'
(ttp2391
a(S'G?OGEOGO@?R_'
(ttp2392
a(S'G?OCG@CA?K?G'
(ttp2393
a(S'G??GCG@CI?[O'
(ttp2394
a(S'G??OAGWO@ECG'
(ttp2395
a(S'G?O?@?`DaA?O'
(ttp2396
a(S'G?O?@G@?AQ?O'
(ttp2397
a(S'G?O?A??D`F?G'
(ttp2398
a(S'G@?GEOH?@?Q_'
(ttp2399
a(S'G??OA@iC@AD?'
(ttp2400
a(S'G???@?`DaAGO'
(ttp2401
a(S'G?OG??OCqA?O'
(ttp2402
a(S'G?OO@I?SAQ@G'
(ttp2403
a(S'G?OGA??O_CS_'
(ttp2404
a(S'G??CA?_@OAYO'
(ttp2405
a(S'G??GCGcO@?X_'
(ttp2406
a(S'G@?oI__C@?V?'
(ttp2407
a(S'G?`?C?QCGQ?W'
(ttp2408
a(S'G?OOC_c?AAR?'
(ttp2409
a(S'G??GCGKC@B@G'
(ttp2410
a(S'G@?CGO?SAeAG'
(ttp2411
a(S'G???O?a?@`C_'
(ttp2412
a(S'G?_?CO`O@?Q_'
(ttp2413
a(S'G@?_I@_C@?^?'
(ttp2414
a(S'G?OG@_@@@J?G'
(ttp2415
a(S'G?OCA?SA_F?G'
(ttp2416
a(S'G?OCAACAQ?QO'
(ttp2417
a(S'G?OCO_C?AI?O'
(ttp2418
a(S'G???@?_Hg?XO'
(ttp2419
a(S'G?_CC?OCQA?O'
(ttp2420
a(S'G?OG??OGw?OO'
(ttp2421
a(S'G?_H?HGO@?P_'
(ttp2422
a(S'G??CAGC?PBGG'
(ttp2423
a(S'G@?_I_OCQ?UO'
(ttp2424
a(S'G??CAO@I_?Oo'
(ttp2425
a(S'G@?CGo_GOHP_'
(ttp2426
a(S'G??CCOa?AAXO'
(ttp2427
a(S'G?O?AGGGP@C_'
(ttp2428
a(S'G??CAO?YO?Q_'
(ttp2429
a(S'G?_OG`?G@GT_'
(ttp2430
a(S'G?_?C@cC@AB?'
(ttp2431
a(S'G?O?A?_@PBA?'
(ttp2432
a(S'G??C@OAAGD?G'
(ttp2433
a(S'G?OG??OGq?Oo'
(ttp2434
a(S'G?OG??QCGD?G'
(ttp2435
a(S'G?OG??_Oo?O_'
(ttp2436
a(S'G??OAI?W@C[_'
(ttp2437
a(S'GA?OA_?W@CU_'
(ttp2438
a(S'G?O?A??PACQ_'
(ttp2439
a(S'G?O???OCgT?G'
(ttp2440
a(S'G??C@GCIQ?Oo'
(ttp2441
a(S'G?_?A@EO@?P_'
(ttp2442
a(S'G??GEO@O@?Y_'
(ttp2443
a(S'G?OGCQ?W@CQ_'
(ttp2444
a(S'G?O?@?_@aAPO'
(ttp2445
a(S'G@?GCGk?@?P_'
(ttp2446
a(S'G?OGCGCOAAP?'
(ttp2447
a(S'G?OG@?Q?GD?G'
(ttp2448
a(S'G?_C@@I?@R@G'
(ttp2449
a(S'G?O???OGoP?_'
(ttp2450
a(S'G?O?A@@CIOQO'
(ttp2451
a(S'G?OOGg?GHDCG'
(ttp2452
a(S'G?_CGQ?OQGWO'
(ttp2453
a(S'G?__GGOOQOWO'
(ttp2454
a(S'G??WGH@G@?[_'
(ttp2455
a(S'G?_C@@?W@G@_'
(ttp2456
a(S'G??G@OQO@d?g'
(ttp2457
a(S'G??O@I?SAQHG'
(ttp2458
a(S'G?OCA??D_F?G'
(ttp2459
a(S'G??C@??O_q@G'
(ttp2460
a(S'G?O?@@?GHX@G'
(ttp2461
a(S'G?_?@@?W@GD_'
(ttp2462
a(S'G?OG??OGo@?_'
(ttp2463
a(S'G?????OHOHG_'
(ttp2464
a(S'G?OG??OCoB?G'
(ttp2465
a(S'G?O?@?_Ho?Oo'
(ttp2466
a(S'G?_?@HGOAAT?'
(ttp2467
a(S'G?_CC_QCGT?G'
(ttp2468
a(S'G?OCA?cIO?Qo'
(ttp2469
a(S'G?_CC@GC@Y@G'
(ttp2470
a(S'G?OGAAA@O?OO'
(ttp2471
a(S'G?OGA_@?`BC?'
(ttp2472
a(S'G?_CCGD?I?WO'
(ttp2473
a(S'G?OGE_CO@?R_'
(ttp2474
a(S'G?OOAOgO@?R_'
(ttp2475
a(S'G?OCAOaOAAPO'
(ttp2476
a(S'G?__K`?C@SAG'
(ttp2477
a(S'G?OGC?QGGD?_'
(ttp2478
a(S'G?_C@GCO@D?g'
(ttp2479
a(S'G?_C@GDO@@?g'
(ttp2480
a(S'G?OGA@@CI?QO'
(ttp2481
a(S'G?OOA?OGO@?_'
(ttp2482
a(S'G?OG@?Q?IC?O'
(ttp2483
a(S'G?OOA?CGHDA?'
(ttp2484
a(S'G?O?@@EGACOo'
(ttp2485
a(S'G?O??ACCAK?O'
(ttp2486
a(S'G???@??Q@Y@G'
(ttp2487
a(S'G?O?AGGHO?Oo'
(ttp2488
a(S'G?OGE_@O@?U_'
(ttp2489
a(S'G???AOOYO?Q_'
(ttp2490
a(S'G??GGGGCQ?SO'
(ttp2491
a(S'GA_OGH?CAOX?'
(ttp2492
a(S'GA_OGG?CQOWO'
(ttp2493
a(S'G?_C@@??HH@G'
(ttp2494
a(S'G?OQ?I?GHDCG'
(ttp2495
a(S'G?_?@GGOQASO'
(ttp2496
a(S'G??GC@c?@_R_'
(ttp2497
a(S'G?OOEO@G@?Q_'
(ttp2498
a(S'G?OOGO_W@GP_'
(ttp2499
a(S'G??C@GGHQ?Oo'
(ttp2500
a(S'G?OOC?kG@?R_'
(ttp2501
a(S'G?OGA@G?g?T?'
(ttp2502
a(S'G@?GCGGG@?T_'
(ttp2503
a(S'G?_C?@??HPBG'
(ttp2504
a(S'G?O?A?_@OAQO'
(ttp2505
a(S'G?_OEOG?@?R_'
(ttp2506
a(S'GA?HG`?C@H@G'
(ttp2507
a(S'G?__K`?G@OR?'
(ttp2508
a(S'G??_I@?CAcUO'
(ttp2509
a(S'G?OOA`cCG?R?'
(ttp2510
a(S'G??C@AA@O`?G'
(ttp2511
a(S'G?OGG@G?a?T?'
(ttp2512
a(S'G?O?@@@GHX?G'
(ttp2513
a(S'G?_???OGw?SO'
(ttp2514
a(S'G?OCA?C?ICQO'
(ttp2515
a(S'G?OI?G`@@@?_'
(ttp2516
a(S'G?OCA?cAOBA?'
(ttp2517
a(S'G?O?@@?SA]?G'
(ttp2518
a(S'G?O?@?OOOY?G'
(ttp2519
a(S'G?`OK?WC@EEG'
(ttp2520
a(S'G??G?@@CIG[O'
(ttp2521
a(S'G???@?O@Oh?g'
(ttp2522
a(S'G?_C@?PO@H?g'
(ttp2523
a(S'G?OOA??OACQ_'
(ttp2524
a(S'G?O?A?cEOAAO'
(ttp2525
a(S'G@?CDA?CAY@G'
(ttp2526
a(S'G?_CC@D?I?Y?'
(ttp2527
a(S'G?__@@?CiC[O'
(ttp2528
a(S'G?O?@?P@_B?G'
(ttp2529
a(S'G?_?C?QCGECW'
(ttp2530
a(S'GA?CCGcIO@P_'
(ttp2531
a(S'G?OGA_C?o?Oo'
(ttp2532
a(S'G?O?@?`@a?Oo'
(ttp2533
a(S'G??G?@?W@G\\_'
(ttp2534
a(S'G??gCB?CAG\\?'
(ttp2535
a(S'G??OGOOSAeAG'
(ttp2536
a(S'G?OD?_AGQ?Oo'
(ttp2537
a(S'G?_CC?gCPRAG'
(ttp2538
a(S'G?_CC@C?ICY?'
(ttp2539
a(S'G?OGAGG@O?Oo'
(ttp2540
a(S'G?OG@@@CGI?W'
(ttp2541
a(S'G?O?A@?W@OR_'
(ttp2542
a(S'G???AACEQ?QO'
(ttp2543
a(S'G?_?CGDCI?WO'
(ttp2544
a(S'G@?C@@Q?AU?G'
(ttp2545
a(S'G?O?@?`@g@?G'
(ttp2546
a(S'G?_CKGX@OA?W'
(ttp2547
a(S'G?O?A@A@A?P_'
(ttp2548
a(S'G??GE_CO@?R_'
(ttp2549
a(S'G???@?`D_BGG'
(ttp2550
a(S'G?_?CACC@DAG'
(ttp2551
a(S'G?_C@@@?@H?g'
(ttp2552
a(S'G?O?@ACGa?PO'
(ttp2553
a(S'G?O???OOoQ?G'
(ttp2554
a(S'G?O?@?PHa?Oo'
(ttp2555
a(S'G@?C@_`DGI?W'
(ttp2556
a(S'G??C@_c?PJ?G'
(ttp2557
a(S'G??C?@KGACQo'
(ttp2558
a(S'G?O?@?_X_?P_'
(ttp2559
a(S'G?_ODICCOA@G'
(ttp2560
a(S'G?OCKa?HAGPO'
(ttp2561
a(S'G??C@?AJA?Po'
(ttp2562
a(S'G??CA?C?ICYO'
(ttp2563
a(S'G???@?_X_?X_'
(ttp2564
a(S'G@?CA@cG@?R_'
(ttp2565
a(S'GC?GA?Q@G?OO'
(ttp2566
a(S'G@?G@@c?@G@_'
(ttp2567
a(S'G?_CA@@?@@A_'
(ttp2568
a(S'G?OWG_?W@GT_'
(ttp2569
a(S'G??G@OWO@L?g'
(ttp2570
a(S'G?_C@?aO@@@_'
(ttp2571
a(S'G???@ACGa?XO'
(ttp2572
a(S'G?OG??S?HL?G'
(ttp2573
a(S'G?OOIQ?CQ?QO'
(ttp2574
a(S'G@??PAEGACOo'
(ttp2575
a(S'G??CAGSIO@?_'
(ttp2576
a(S'G???@@AA@U?G'
(ttp2577
a(S'G?_CCO@?H@AG'
(ttp2578
a(S'G?OCA?SI_C?o'
(ttp2579
a(S'G?_OCGWCQAC?'
(ttp2580
a(S'G?_GC@CC@EI?'
(ttp2581
a(S'G??aAPAC@B@G'
(ttp2582
a(S'G?_CIGPBO@?o'
(ttp2583
a(S'G?OGA@?W@?R_'
(ttp2584
a(S'G?_CCGC?QAWO'
(ttp2585
a(S'G?OCC?SGQg?o'
(ttp2586
a(S'G@?GGA?W@C]?'
(ttp2587
a(S'G?_CC@D?A?Q_'
(ttp2588
a(S'G?O_EB?G@OR?'
(ttp2589
a(S'G?_CC@D?@AAG'
(ttp2590
a(S'G?OGCGSCWE?W'
(ttp2591
a(S'G??CC_`C@RAG'
(ttp2592
a(S'G???@?`@a?Wo'
(ttp2593
a(S'G?_CGR?C@@BG'
(ttp2594
a(S'G?OG@?a?I?PO'
(ttp2595
a(S'G?OGA?A?HDC?'
(ttp2596
a(S'G?_CCPG?AAR?'
(ttp2597
a(S'G??C@_A@GD?G'
(ttp2598
a(S'G?OOAGGO@ECG'
(ttp2599
a(S'G??_K__CPPAG'
(ttp2600
a(S'G@?GEGGCG?T?'
(ttp2601
a(S'G?OOA?C?AEQO'
(ttp2602
a(S'G@A_@O`?AAPO'
(ttp2603
a(S'G?_?A?PO@@E_'
(ttp2604
a(S'G?QOG?dAAAPO'
(ttp2605
a(S'G??CA?WD_E?W'
(ttp2606
a(S'G?OOAAU?GD?G'
(ttp2607
a(S'GA?O@W_IO@P_'
(ttp2608
a(S'G??CAHCQBE@_'
(ttp2609
a(S'G??CC_cW@?R_'
(ttp2610
a(S'G??CA?gPO?Q_'
(ttp2611
a(S'G@?OAAGG@?V?'
(ttp2612
a(S'G??CA_c?PBA?'
(ttp2613
a(S'G?_CGO@O@@AG'
(ttp2614
a(S'G???EQ?W@CY_'
(ttp2615
a(S'G??C@?AB?B@G'
(ttp2616
a(S'G?_?C@cCG?R?'
(ttp2617
a(S'G??O@?gOPICG'
(ttp2618
a(S'GC?OE?SG@?Q_'
(ttp2619
a(S'G?_C@?AO@P@g'
(ttp2620
a(S'GC?CA@CGG?QO'
(ttp2621
a(S'G?OGCGcO@A@?'
(ttp2622
a(S'G?OCA?x@oB?o'
(ttp2623
a(S'G@?G@OOCGM?W'
(ttp2624
a(S'G?OGAG?TOA??'
(ttp2625
a(S'G??CK_PHAGOo'
(ttp2626
a(S'GAACC@O?AU?G'
(ttp2627
a(S'G??CA_SGQ?Qo'
(ttp2628
a(S'G??CGO@IA?QO'
(ttp2629
a(S'G??CAOGGO@Q_'
(ttp2630
a(S'GCOOE?CG@?Q_'
(ttp2631
a(S'G@O?GO?SAeAG'
(ttp2632
a(S'G?O_A@AP@E?G'
(ttp2633
a(S'GCOGA?A@G?OO'
(ttp2634
a(S'GA?OA_@G@@U_'
(ttp2635
a(S'G??CC?WCQY?W'
(ttp2636
a(S'G?OCCOa?H`@G'
(ttp2637
a(S'GA?O@?OCQY?W'
(ttp2638
a(S'G?OGC?eCWA?O'
(ttp2639
a(S'G??OC_cCI?R?'
(ttp2640
a(S'GA?CEGODOE?W'
(ttp2641
a(S'GC?CCAAGHTAG'
(ttp2642
a(S'G@??@@cC@I@G'
(ttp2643
a(S'G?_?CP@CI?Y?'
(ttp2644
a(S'GC?G@A?Dg@?W'
(ttp2645
a(S'G?O?AHD?AAOO'
(ttp2646
a(S'G?O_S?OGHDAG'
(ttp2647
a(S'GC?WG?OW@GS_'
(ttp2648
a(S'G@?C@@aG@O@_'
(ttp2649
a(S'GC?G@@A?AASO'
(ttp2650
a(S'G?O?AOGGP@A_'
(ttp2651
a(S'G?O?AOGGW?QO'
(ttp2652
a(S'GC?CK??HAKOo'
(ttp2653
a(S'G?O?AO@I?@Q_'
(ttp2654
a(S'GC?CC?cOA?Q_'
(ttp2655
a(S'G?_CC@R?AA?_'
(ttp2656
a(S'GCOWG??W@GS_'
(ttp2657
a(S'G@?G@@cC?I@?'
(ttp2658
a(S'G?_CCAcO@?B?'
(ttp2659
a(S'G?_CC@c?H?B?'
(ttp2660
a(S'G?__S?Q?@@?g'
(ttp2661
a(S'G?OOQ@?GgOO_'
(ttp2662
a(S'G?O?AHCOAAP?'
(ttp2663
a(S'GC_CC?COA?Q_'
(ttp2664
a(S'G?_?COPOA?Q_'
(ttp2665
a(S'G??C@_SGQG?o'
(ttp2666
a(S'G?_?C@CG@CY_'
(ttp2667
a(S'G??GEGGO@?T_'
(ttp2668
a(S'G??GCOGCICQO'
(ttp2669
a(S'G@?G@?T?@H?g'
(ttp2670
a(S'G?_CSAA@A?Oo'
(ttp2671
a(S'G?_?CPGCBAB?'
(ttp2672
a(S'G?`?@@ADGA?W'
(ttp2673
a(S'G??I@@EOBE@_'
(ttp2674
a(S'G?O?EQ?W@CQ_'
(ttp2675
a(S'G???AOPI@@A_'
(ttp2676
a(S'G???@GgHO?Oo'
(ttp2677
a(S'GC??C?cCI?QO'
(ttp2678
a(S'GC_CC?CO@AAG'
(ttp2679
a(S'G?P?CB?GAWO_'
(ttp2680
a(S'GC_CC?C?H@AG'
(ttp2681
a(S'GD?C@?AG@P?g'
(ttp2682
a(S'G@??@OPG@H?g'
(ttp2683
a(S'G?_?@PBGG?Oo'
(ttp2684
a(S'G??C@_CGPH?g'
(ttp2685
a(S'G???@OPI@H?g'
(ttp2686
a(S'GC_?C?CCI?QO'
(ttp2687
a(S'GC?C@@AG@P?g'
(ttp2688
a(S'GA?O@@_C@I@G'
(ttp2689
a(S'G?_?@OOOqA?o'
(ttp2690
a(S'G???COgOB?R_'
(ttp2691
a(S'G?_?CO@OB?Y_'
(ttp2692
a(S'GA@W??OG`?S?'
(((I7
I1
t(I2
I-2
tp2693
tttp2694
a(S'G@??@@cG?GP_'
(ttp2695
a(S'G@?CA@V??A?g'
(ttp2696
a(S'G?O_AB??aCOO'
(ttp2697
a(S'GA?O@?_COJ@G'
(ttp2698
a(S'G@AG??PCGA?W'
(ttp2699
a(S'GD_?A?Q@@AW?'
(((I7
I0
t(I2
I-2
ttttp2700
a(S'GC?O@A?GAGOo'
(ttp2701
a(S'G@?C@@QG?S?g'
(ttp2702
a(S'G???A_CCPBAG'
(ttp2703
a(S'G?_?CO@CI?QO'
(ttp2704
a(S'G?aW@@@?H?S?'
(((I7
I1
t(I2
I-2
ttttp2705
a(S'GO_?C?RGG?Oo'
(ttp2706
a(S'GD_???S?`AW?'
(((I7
I0
t(I2
I-2
ttttp2707
a(S'G@@GM??C@?Q?'
(((I7
I2
t(I2
I-2
ttttp2708
a(S'G?`o??OK`?C?'
(((I7
I1
t(I2
I-2
ttttp2709
a(S'G?_O[?OK@?A?'
(((I7
I2
t(I2
I-2
ttttp2710
a(S'G@@?M?_C@?Q?'
(((I7
I2
tg2693
tttp2711
a(S'GA`W??O?`?S?'
(((I7
I1
tg2693
tttp2712
a(S'G?`W??Q?H?S?'
(((I7
I1
t(I2
I-2
ttttp2713
as.