(dp1
(S'F'
I4
(I1
I2
tp2
tp3
(lp4
(S'E@EOGGC'
(((I1
I3
t(I1
I-2
tp5
t((I2
I1
t(I2
I-2
tp6
t((I3
I2
t(I2
I-1
tp7
tttp8
a(S'EAH@OCC'
(((I3
I1
tg7
t((I5
I3
tg5
tttp9
a(S'E@CPAGA'
(((I2
I1
t(I2
I-1
tp10
t((I4
I2
t(I1
I-2
tp11
t((I5
I4
tg10
tttp12
a(S'EB_@GOS'
(((I0
I5
tg5
t((I1
I0
tg6
t((I5
I1
tg7
tttp13
a(S'EBI?_CC'
(((I0
I4
tg5
t((I3
I0
tg6
t((I4
I3
tg7
tttp14
a(S'E@KA_OA'
(((I2
I4
tg10
t((I3
I0
tg10
t((I4
I1
t(I1
I-2
tp15
tttp16
a(S'E@DCAWA'
(((I1
I3
tg10
t((I4
I1
tg11
t((I5
I4
tg10
tttp17
a(S'EC@DAWA'
(((I2
I3
t(I1
I-2
tp18
t((I4
I1
tg10
t((I4
I2
tg10
t((I5
I4
tg18
tttp19
a(S'E@EPGGA'
(((I2
I1
t(I2
I-1
tp20
t((I3
I2
t(I1
I-2
tp21
t((I4
I2
tg21
t((I5
I4
tg20
tttp22
a(S'E@a?OKC'
(((I1
I0
tg10
t((I3
I1
tg11
t((I4
I3
tg10
tttp23
a(S'EP@AGcA'
(((I4
I0
tg7
t((I5
I4
tg5
tttp24
a(S'EQ@C@Cg'
(((I0
I1
t(I1
I-2
tp25
t((I2
I3
t(I2
I-1
tp26
t((I3
I5
tg25
t((I5
I0
tg26
tttp27
a(S'EPE?_GC'
(((I0
I1
tg5
t((I1
I3
tg7
t((I3
I0
tg6
tttp28
a(S'E@KBAO?'
(((I1
I2
tg5
t((I2
I4
tg7
t((I4
I1
tg6
tttp29
a(S'EDI?@_A'
(((I4
I0
tg7
t((I5
I4
tg5
tttp30
a(S'EA@`OKA'
(((I2
I0
t(I1
I-2
tp31
t((I3
I1
tg10
t((I4
I2
tg10
t((I5
I4
tg31
tttp32
a(S'EWA@A@c'
(((I1
I4
tg10
t((I2
I5
tg10
t((I5
I0
tg15
tttp33
a(S'EDI@A_O'
(((I2
I5
tg10
t((I3
I4
tg15
t((I4
I0
tg10
t((I5
I1
tg15
tttp34
a(S'E@A_OGC'
(((I2
I0
tg10
t((I3
I1
t(I1
I-2
tp35
tttp36
a(S'E@BCOGC'
(((I1
I5
tg21
t((I2
I3
tg21
t((I3
I1
t(I2
I-1
ttttp37
a(S'E@A@AGC'
(((I4
I2
tg20
t((I5
I3
t(I1
I-2
tp38
tttp39
a(S'EPE?__I'
(((I0
I1
tg20
t((I3
I0
tg21
t((I4
I0
tg21
t((I5
I4
tg20
tttp40
a(S'EADQ@?G'
(((I2
I1
tg7
t((I5
I2
tg5
tttp41
a(S'E@@AgSA'
(((I3
I0
tg10
t((I4
I1
tg10
t((I5
I4
tg18
tttp42
a(S'E@I?O@C'
(((I3
I1
t(I2
I-1
tp43
t((I4
I5
tg18
tttp44
a(S'EE@`?WA'
(((I2
I0
tg18
t((I4
I1
tg10
t((I4
I2
tg10
t((I5
I4
tg18
tttp45
a(S'EC@@OgA'
(((I1
I5
t(I1
I-2
tt((I4
I0
tg10
tttp46
a(S'EE?AP@g'
(((I0
I4
tg10
t((I3
I5
tg10
t((I5
I0
tg11
tttp47
a(S'EPI?A_C'
(((I0
I1
t(I1
I-2
tp48
t((I3
I4
tg48
t((I4
I0
t(I2
I-1
ttttp49
a(S'EDa?@GO'
(((I1
I0
tg7
t((I5
I1
tg5
tttp50
a(S'ECA@PKa'
(((I1
I4
tg26
t((I3
I5
tg26
t((I4
I3
tg25
t((I5
I0
tg25
tttp51
a(S'E@c@AGO'
(((I1
I0
tg25
t((I4
I2
tg25
t((I5
I1
tg26
tttp52
a(S'EEI@@@o'
(((I0
I3
tg25
t((I1
I2
tg25
t((I4
I5
tg25
t((I5
I0
tg26
t((I5
I1
tg26
tttp53
a(S'EBk@AOO'
(((I1
I0
t(I2
I-1
tp54
t((I2
I5
tg54
t((I3
I4
tg54
t((I4
I1
t(I1
I-2
tp55
t((I5
I1
tg55
tttp56
a(S'E@A?AHS'
(((I3
I4
t(I2
I-1
tp57
t((I4
I5
t(I1
I-2
tp58
t((I5
I1
tg57
tttp59
a(S'E@A@?KO'
(((I4
I2
t(I1
I-2
tp60
t((I5
I1
tg10
tttp61
a(S'E@EPGGA'
(((I2
I1
tg15
t((I3
I2
tg10
t((I4
I2
tg10
t((I5
I4
tg15
tttp62
a(S'E@aCAHS'
(((I1
I0
t(I1
I-2
tp63
t((I2
I3
tg63
t((I3
I4
tg10
t((I4
I5
tg63
t((I5
I1
tg10
tttp64
a(S'EA`C@SI'
(((I1
I0
t(I2
I-1
tp65
t((I2
I3
tg65
t((I3
I5
tg15
t((I4
I1
tg15
t((I5
I4
tg65
tttp66
a(S'E@ICO_C'
(((I2
I3
t(I1
I-2
tp67
t((I3
I1
tg10
t((I4
I0
tg67
tttp68
a(S'E@@CQ@C'
(((I3
I1
tg38
t((I4
I5
tg38
t((I5
I3
t(I2
I-1
ttttp69
a(S'EA@@@KA'
(((I3
I5
tg20
t((I4
I2
tg20
t((I5
I4
t(I1
I-2
tp70
tttp71
a(S'E@@A?SG'
(((I4
I1
tg20
t((I5
I2
tg38
tttp72
a(S'EW?@@Ka'
(((I2
I5
t(I1
I-2
tt((I4
I2
tg10
t((I5
I0
tg10
tttp73
a(S'ECA@PKa'
(((I1
I4
t(I1
I-2
tp74
t((I3
I5
tg74
t((I4
I3
tg10
t((I5
I0
tg10
tttp75
a(S'E@@cAOG'
(((I2
I0
tg10
t((I4
I1
tg10
t((I5
I2
tg18
tttp76
a(S'EWA@A@c'
(((I1
I4
tg21
t((I2
I5
tg21
t((I5
I0
tg20
tttp77
a(S'EA@`OKA'
(((I2
I0
t(I2
I-1
tp78
t((I3
I1
tg25
t((I4
I2
tg25
t((I5
I4
tg78
tttp79
a(S'E@@AgSA'
(((I3
I0
tg25
t((I4
I1
tg25
t((I5
I4
tg26
tttp80
a(S'E@EA_@W'
(((I2
I4
t(I1
I-2
tp81
t((I3
I0
tg26
t((I4
I5
tg26
t((I5
I1
tg81
tttp82
a(S'EE@@GO_'
(((I3
I2
tg25
t((I4
I1
tg25
t((I5
I0
t(I2
I-1
ttttp83
a(S'E@APaGC'
(((I2
I1
tg25
t((I3
I0
tg26
t((I4
I2
tg26
t((I5
I3
tg25
tttp84
a(S'E@EA_@W'
(((I2
I4
t(I2
I-1
tp85
t((I3
I0
tg25
t((I4
I5
tg25
t((I5
I1
tg85
tttp86
a(S'E@@EO_G'
(((I3
I1
tg54
t((I4
I0
tg54
t((I5
I2
t(I1
I-2
ttttp87
a(S'EDI??_O'
(((I4
I0
t(I2
I-1
tt((I5
I1
tg18
tttp88
a(S'ECAAO@g'
(((I1
I4
tg10
t((I5
I0
tg35
tttp89
a(S'E@e??@W'
(((I1
I0
tg57
t((I4
I5
tg57
t((I5
I1
tg58
tttp90
a(S'ECAAODW'
(((I1
I4
t(I2
I-1
tt((I4
I3
t(I1
I-2
tp91
t((I5
I1
tg91
tttp92
a(S'EW?@@Ka'
(((I2
I5
t(I2
I-1
tt((I4
I2
t(I1
I-2
tp93
t((I5
I0
tg93
tttp94
a(S'EC@SA`G'
(((I2
I3
tg10
t((I4
I5
t(I1
I-2
ttttp95
a(S'E@A??cW'
(((I4
I0
tg10
t((I5
I1
t(I1
I-2
ttttp96
a(S'EPE?__I'
(((I0
I1
tg15
t((I3
I0
t(I2
I-1
tp97
t((I4
I0
tg97
t((I5
I4
tg15
tttp98
a(S'E@@U?@G'
(((I2
I1
tg60
t((I4
I5
tg60
t((I5
I2
t(I2
I-1
tp99
tttp100
a(S'E@AA@CG'
(((I2
I4
tg43
t((I3
I5
tg18
tttp101
a(S'EC@DAWA'
(((I2
I3
t(I2
I-1
tp102
t((I4
I1
t(I1
I-2
tp103
t((I4
I2
tg103
t((I5
I4
tg102
tttp104
a(S'E@e??@W'
(((I1
I0
tg60
t((I4
I5
tg60
t((I5
I1
tg99
tttp105
a(S'E@aC@CW'
(((I1
I0
tg10
t((I2
I3
t(I1
I-2
tp106
t((I3
I5
tg10
t((I5
I1
tg106
tttp107
a(S'E@CPAGA'
(((I2
I1
tg67
t((I4
I2
t(I2
I-1
tt((I5
I4
tg67
tttp108
a(S'EBk@AOO'
(((I1
I0
tg25
t((I2
I5
tg25
t((I3
I4
tg25
t((I4
I1
t(I2
I-1
tp109
t((I5
I1
tg109
tttp110
a(S'EC@@OWE'
(((I1
I5
t(I1
I-2
tt((I4
I1
t(I2
I-1
tp111
t((I5
I3
tg111
tttp112
a(S'E@@U?@G'
(((I2
I1
tg20
t((I4
I5
tg20
t((I5
I2
tg70
tttp113
a(S'EA@?@SI'
(((I3
I5
t(I1
I-2
tp114
t((I4
I1
tg114
t((I5
I4
t(I2
I-1
ttttp115
a(S'E@K?@OA'
(((I3
I5
t(I2
I-1
tt((I4
I1
tg93
tttp116
a(S'EE@`?WA'
(((I2
I0
tg26
t((I4
I1
tg25
t((I4
I2
tg25
t((I5
I4
tg26
tttp117
a(S'EPI?A_C'
(((I0
I1
tg10
t((I3
I4
tg10
t((I4
I0
t(I1
I-2
ttttp118
a(S'E@BCOGC'
(((I1
I5
tg10
t((I2
I3
tg10
t((I3
I1
t(I1
I-2
ttttp119
a(S'ED?@QgA'
(((I0
I5
t(I1
I-2
tp120
t((I3
I4
tg120
t((I4
I0
t(I2
I-1
ttttp121
a(S'EP@AGcA'
(((I4
I0
t(I1
I-2
tt((I5
I4
t(I2
I-1
ttttp122
a(S'E@@Qa@K'
(((I2
I1
tg78
t((I3
I0
tg78
t((I4
I5
tg78
t((I5
I2
t(I1
I-2
tp123
t((I5
I3
tg123
tttp124
a(S'E@DCAWA'
(((I1
I3
tg21
t((I4
I1
t(I2
I-1
tt((I5
I4
tg21
tttp125
a(S'EQD?@G_'
(((I0
I1
t(I1
I-2
tp126
t((I5
I0
t(I2
I-1
tp127
tttp128
a(S'EPA?_CK'
(((I0
I1
t(I1
I-2
tp129
t((I3
I0
tg97
t((I5
I3
tg129
tttp130
a(S'E@ICOCG'
(((I1
I2
t(I2
I-1
tt((I2
I3
t(I1
I-2
tt((I3
I1
t(I2
I-2
ttttp131
a(S'EDK?A_A'
(((I0
I3
t(I2
I-1
tt((I3
I4
t(I1
I-2
tt((I4
I0
t(I2
I-2
ttttp132
a(S'EPE?_GC'
(((I0
I1
tg127
t((I1
I3
tg126
t((I3
I0
t(I2
I-2
ttttp133
a(S'EAID@?O'
(((I1
I2
tg126
t((I5
I1
tg127
tttp134
a(S'EAH@OCC'
(((I3
I1
t(I1
I-2
tt((I5
I3
t(I2
I-1
ttttp135
a(S'EB_@GOS'
(((I0
I5
t(I2
I-1
tt((I1
I0
t(I2
I-2
tt((I5
I1
t(I1
I-2
ttttp136
a(S'EDI?@_A'
(((I4
I0
t(I1
I-2
tt((I5
I4
t(I2
I-1
ttttp137
a(S'E@KBAO?'
(((I1
I2
t(I2
I-1
tt((I2
I4
t(I1
I-2
tt((I4
I1
t(I2
I-2
ttttp138
as(S'F'
I4
(I2
I2
tp139
tp140
(lp141
(S'EA@BGCC'
(((I2
I4
t(I1
I-2
tp142
t((I3
I2
t(I2
I-2
tp143
t((I4
I3
t(I2
I-1
tp144
tttp145
a(S'E@HE?OA'
(((I1
I2
tg142
t((I2
I4
tg144
t((I4
I1
tg143
tttp146
a(S'E@@SAGA'
(((I2
I1
t(I2
I-1
tp147
t((I3
I4
tg147
t((I4
I2
t(I1
I-2
tp148
tttp149
a(S'EOAAHDO'
(((I1
I4
tg144
t((I5
I1
tg142
tttp150
a(S'EAB?OCK'
(((I1
I4
tg142
t((I3
I1
tg143
t((I4
I3
tg144
tttp151
a(S'EK@@@Sa'
(((I0
I3
tg147
t((I2
I5
tg147
t((I5
I0
tg148
tttp152
a(S'E@A@PKA'
(((I3
I1
t(I1
I-2
tp153
t((I4
I2
tg147
t((I4
I3
tg147
t((I5
I4
tg153
tttp154
a(S'E@HAOOE'
(((I1
I5
tg147
t((I2
I4
tg147
t((I3
I1
t(I1
I-2
tp155
t((I4
I1
tg155
tttp156
a(S'E@c?AOI'
(((I1
I0
tg147
t((I3
I4
tg147
t((I4
I1
tg148
tttp157
a(S'E@@COGA'
(((I3
I1
tg147
t((I4
I2
t(I1
I-2
tp158
tttp159
a(S'EQ?AHD_'
(((I0
I4
tg144
t((I5
I0
tg142
tttp160
a(S'EA@`AGC'
(((I2
I0
t(I1
I-2
tp161
t((I3
I4
tg161
t((I4
I2
t(I2
I-1
tp162
tttp163
a(S'EPI??_E'
(((I0
I1
tg142
t((I1
I4
tg144
t((I4
I0
tg143
tttp164
a(S'ECBAO@K'
(((I3
I1
t(I2
I-1
tp165
t((I5
I3
t(I1
I-2
tp166
tttp167
a(S'ECB@OGC'
(((I3
I1
tg144
t((I5
I3
tg142
tttp168
a(S'EQ@AG@c'
(((I0
I4
t(I2
I-1
tp169
t((I1
I5
tg169
t((I5
I0
t(I1
I-2
ttttp170
a(S'EBg?@CO'
(((I1
I0
tg144
t((I5
I1
tg142
tttp171
a(S'EI@C`SA'
(((I0
I4
tg147
t((I2
I3
tg147
t((I3
I0
tg148
tttp172
a(S'EA@`?WE'
(((I2
I0
t(I1
I-2
tp173
t((I4
I1
tg147
t((I4
I2
tg147
t((I5
I4
tg173
tttp174
a(S'E@C?_OI'
(((I3
I0
tg147
t((I4
I1
t(I1
I-2
ttttp175
a(S'ESJ?@__'
(((I0
I1
tg147
t((I3
I5
tg147
t((I4
I0
t(I1
I-2
tp176
t((I5
I0
tg176
tttp177
a(S'EBg?A@S'
(((I1
I0
tg165
t((I5
I1
tg166
tttp178
a(S'EC@`GWE'
(((I2
I0
tg161
t((I3
I2
tg162
t((I5
I3
tg161
tttp179
a(S'EPA?A_K'
(((I0
I1
tg161
t((I3
I4
tg161
t((I4
I0
tg162
tttp180
a(S'EG@C@Sa'
(((I2
I3
tg147
t((I5
I0
tg158
tttp181
a(S'E@@@QGC'
(((I3
I1
tg147
t((I4
I2
tg147
t((I5
I3
t(I1
I-2
ttttp182
a(S'E@CC@OI'
(((I2
I3
tg158
t((I3
I5
t(I2
I-1
tt((I4
I1
tg158
tttp183
a(S'E@a?A@['
(((I1
I0
t(I2
I-1
tp184
t((I3
I4
t(I1
I-2
tp185
t((I4
I5
tg184
t((I5
I1
tg185
tttp186
a(S'EOAAG@c'
(((I1
I4
tg147
t((I5
I0
t(I1
I-2
tp187
tttp188
a(S'EAL?AO_'
(((I3
I4
tg153
t((I4
I1
t(I2
I-1
tt((I5
I0
tg153
tttp189
a(S'EC@DAwA'
(((I2
I3
tg187
t((I3
I4
t(I2
I-1
tt((I4
I0
tg187
tttp190
a(S'EO@@GSa'
(((I1
I5
t(I2
I-1
tt((I4
I1
tg187
t((I5
I0
tg187
tttp191
a(S'EG@A`SA'
(((I2
I4
tg147
t((I3
I0
tg187
tttp192
a(S'E@@a?OK'
(((I2
I0
tg147
t((I4
I1
tg147
t((I5
I2
t(I1
I-2
ttttp193
a(S'EI@@A@c'
(((I0
I2
t(I2
I-1
tp194
t((I3
I4
t(I1
I-2
tp195
t((I4
I5
tg194
t((I5
I0
tg195
tttp196
as(S'X'
I6
tp197
(lp198
(S'E@@?O_M'
(((I3
I1
t(I2
I-2
tp199
t((I4
I0
tg199
tttp200
a(S'E@@@GOE'
(((I3
I2
tg199
t((I4
I1
tg199
tttp201
a(S'EBD@gWE'
(ttp202
a(S'EB@AwSK'
(ttp203
a(S'EBDE_OG'
(ttp204
as(S'E'
I6
tp205
(lp206
(S'E@AF???'
(ttp207
a(S'E@ACB??'
(ttp208
a(S'E@AC@@?'
(ttp209
a(S'E@E??H?'
(ttp210
a(S'E@F??G?'
(ttp211
a(S'E@AE?@?'
(ttp212
a(S'E@ABGCC'
(ttp213
a(S'E@A?GD?'
(ttp214
a(S'E@?AGT?'
(ttp215
a(S'ED???GQ'
(ttp216
a(S'E@AD?@?'
(ttp217
a(S'EF???GO'
(ttp218
a(S'EBD???G'
(ttp219
a(S'E@?AXCA'
(ttp220
a(S'E@C?AH?'
(ttp221
a(S'E@C@@GA'
(ttp222
a(S'EAC?@@G'
(ttp223
a(S'E??@G_U'
(ttp224
a(S'E@??GOE'
(ttp225
a(S'E@BD???'
(ttp226
a(S'E??P`KA'
(ttp227
a(S'EAD??@G'
(ttp228
a(S'E@@@GOE'
(ttp229
a(S'E@C?@GA'
(ttp230
a(S'E@H?@CA'
(ttp231
a(S'EC@?@OI'
(ttp232
a(S'E@?@PKA'
(ttp233
a(S'E@AC@?A'
(ttp234
a(S'E@D??GA'
(ttp235
a(S'ED@??OI'
(ttp236
a(S'E@AC@?I'
(ttp237
a(S'E@AE@@G'
(ttp238
a(S'E?@@gSA'
(ttp239
a(S'EA@C@CI'
(ttp240
a(S'E@?CPGA'
(ttp241
a(S'E??@PkA'
(ttp242
a(S'EA?PI@C'
(ttp243
a(S'EA??G@S'
(ttp244
a(S'E@@AWCA'
(ttp245
a(S'E@?AaPK'
(ttp246
a(S'E@CAAPK'
(ttp247
a(S'E@ACA@G'
(ttp248
a(S'E??CAPg'
(ttp249
a(S'E@@?O_M'
(ttp250
a(S'E@?@OGE'
(ttp251
a(S'E@?AQ@K'
(ttp252
a(S'E@AAHCO'
(ttp253
a(S'EA?@I@S'
(ttp254
a(S'EACE@@w'
(ttp255
a(S'E?@?`SI'
(ttp256
a(S'E@@Qa@K'
(ttp257
a(S'E@@COGA'
(ttp258
a(S'E?@C`WA'
(ttp259
a(S'E?CO@Ga'
(ttp260
a(S'E?@Aq@K'
(ttp261
a(S'E@A@PKA'
(ttp262
a(S'E@@@GSA'
(ttp263
a(S'E?@@GsA'
(ttp264
a(S'E@@?OcI'
(ttp265
a(S'E@?@GSA'
(ttp266
a(S'E@AOa@K'
(ttp267
a(S'E@AAG@S'
(ttp268
a(S'E@@AQ@K'
(ttp269
a(S'E@A_I@S'
(ttp270
a(S'EACPI@c'
(ttp271
a(S'E?@AQ@k'
(ttp272
a(S'E@@O_KA'
(ttp273
as(S'F'
I4
(I1
I1
tp274
tp275
(lp276
(S'E@CDAGA'
(((I2
I3
t(I2
I-1
tp277
t((I3
I4
t(I1
I-2
tp278
t((I4
I2
t(I2
I-2
tp279
tttp280
a(S'E@HE?OA'
(((I1
I2
tg277
t((I2
I4
tg278
t((I4
I1
tg279
tttp281
a(S'E@@SAGA'
(((I2
I1
t(I1
I-2
tp282
t((I3
I4
tg282
t((I4
I2
t(I2
I-1
ttttp283
a(S'EOAAHDO'
(((I1
I4
tg278
t((I5
I1
tg277
tttp284
a(S'ECD?AOI'
(((I1
I3
tg277
t((I3
I4
tg278
t((I4
I1
tg279
tttp285
a(S'ECBAO@K'
(((I3
I1
tg278
t((I5
I3
tg277
tttp286
a(S'ES@?A_I'
(((I0
I1
t(I1
I-2
tp287
t((I3
I4
tg287
t((I4
I0
t(I2
I-1
ttttp288
a(S'EPI??_E'
(((I0
I1
tg277
t((I1
I4
tg278
t((I4
I0
tg279
tttp289
a(S'EK@@@Sa'
(((I0
I3
t(I1
I-2
tp290
t((I2
I5
tg290
t((I5
I0
t(I2
I-1
tp291
tttp292
a(S'EQ?AHD_'
(((I0
I4
tg278
t((I5
I0
tg277
tttp293
a(S'ECB@OGC'
(((I3
I1
tg278
t((I5
I3
tg277
tttp294
a(S'EA@`AGC'
(((I2
I0
t(I2
I-1
tp295
t((I3
I4
tg295
t((I4
I2
t(I1
I-2
ttttp296
a(S'E@A@PKA'
(((I3
I1
t(I2
I-1
tp297
t((I4
I2
tg282
t((I4
I3
tg282
t((I5
I4
tg297
tttp298
a(S'E@HAOOE'
(((I1
I5
tg282
t((I2
I4
tg282
t((I3
I1
t(I2
I-1
tp299
t((I4
I1
tg299
tttp300
a(S'E@A@OGC'
(((I3
I1
t(I2
I-1
tt((I4
I2
tg282
tttp301
a(S'EI@C`SA'
(((I0
I4
t(I1
I-2
tp302
t((I2
I3
tg302
t((I3
I0
t(I2
I-1
ttttp303
a(S'EWB?A@c'
(((I0
I1
tg278
t((I5
I0
tg277
tttp304
a(S'EA`?AOK'
(((I1
I0
t(I2
I-1
tp305
t((I3
I4
tg305
t((I4
I1
t(I1
I-2
ttttp306
a(S'ESB@?G_'
(((I0
I1
tg278
t((I5
I0
tg277
tttp307
a(S'EG@C`SI'
(((I2
I3
t(I1
I-2
tt((I3
I0
t(I2
I-1
tp308
t((I5
I2
tg308
tttp309
a(S'EO@C@gA'
(((I1
I5
tg290
t((I4
I0
t(I2
I-1
tp310
tttp311
a(S'EQ@?A@k'
(((I0
I1
t(I1
I-2
tp312
t((I3
I4
t(I2
I-1
tp313
t((I4
I5
tg312
t((I5
I0
tg313
tttp314
a(S'EPAC@gA'
(((I0
I5
tg290
t((I1
I4
tg290
t((I4
I0
tg291
tttp315
a(S'EG@C@Sa'
(((I2
I3
tg290
t((I5
I0
t(I2
I-1
ttttp316
a(S'E@AAO@K'
(((I2
I4
tg299
t((I3
I1
tg299
t((I4
I5
tg282
tttp317
a(S'ESJ?@__'
(((I0
I1
tg282
t((I3
I5
tg282
t((I4
I0
tg299
t((I5
I0
tg299
tttp318
a(S'EA@`?WE'
(((I2
I0
t(I2
I-1
tp319
t((I4
I1
tg287
t((I4
I2
tg287
t((I5
I4
tg319
tttp320
a(S'EA@?_OK'
(((I3
I0
t(I2
I-1
tt((I4
I1
tg287
tttp321
a(S'E@@Q@CG'
(((I2
I1
tg282
t((I4
I3
tg282
t((I5
I2
t(I2
I-1
tp322
tttp323
a(S'E@M?@_O'
(((I3
I5
tg297
t((I4
I0
tg297
t((I5
I1
t(I1
I-2
ttttp324
a(S'E@a@?GS'
(((I1
I0
t(I1
I-2
tp325
t((I4
I2
tg325
t((I5
I1
t(I2
I-1
ttttp326
a(S'EC@`AWA'
(((I2
I0
t(I2
I-1
tt((I3
I4
tg302
tttp327
a(S'EO@C@Wa'
(((I1
I5
t(I1
I-2
tt((I4
I1
t(I2
I-1
tp328
t((I5
I0
tg328
tttp329
a(S'EC@DAwA'
(((I2
I3
tg310
t((I3
I4
t(I1
I-2
tt((I4
I0
tg310
tttp330
a(S'EI@@A@c'
(((I0
I2
tg282
t((I3
I4
tg322
t((I4
I5
tg282
t((I5
I0
tg322
tttp331
as.