(dp1
(S'E'
I8
(I1
I1
tp2
tp3
(lp4
(S'I?_@?IBO?OB???O?C?'
(((I9
I3
t(I2
I-2
tp5
tttp6
a(S'I?CA?W?GD????O_`?O'
(ttp7
a(S'I?GB?q???ODC???@G?'
(((I9
I2
tg5
tttp8
a(S'I?GE@a?C@O??O??@G?'
(((I9
I2
tg5
tttp9
a(S'I?GC@I?C@?CAC??@G?'
(((I9
I2
tg5
tttp10
a(S'I?GA?c@o?_@?C?O?C?'
(((I9
I3
tg5
tttp11
a(S'I?OG?g?C??A@??PK@G'
(ttp12
a(S'I?OB?@?CAPA???A_@G'
(ttp13
a(S'I?G@_w???ODCC???G?'
(((I9
I2
tg5
tttp14
a(S'I?GH?[???_@CC?O?G?'
(((I9
I2
tg5
tttp15
a(S'I?OD?@?GCO?M???G?g'
(ttp16
a(S'I@_X???C?o??G_O?O?'
(((I9
I1
tg5
tttp17
a(S'I@?D???C_O??GA@c?g'
(ttp18
a(S'I?OB?A??AP@????oGG'
(ttp19
a(S'I@?R???C?_AGCGO?O?'
(((I9
I1
tg5
tttp20
a(S'I?WM?????OBCC_??O?'
(((I9
I1
tg5
tttp21
a(S'I?OA_g@W??@???O@C?'
(((I9
I3
tg5
tttp22
a(S'IB??O@?S??CGG?D??g'
(ttp23
a(S'II?@???CA?A@??PK@G'
(ttp24
a(S'I?OS?@??A_G???a@AO'
(ttp25
a(S'I?GW_??C@QC@?A?@O?'
(((I9
I1
tg5
tttp26
a(S'I?GA@Q?C@?DA???@G?'
(((I9
I2
tg5
tttp27
a(S'I?OG_O?CC??CCA?G?W'
(ttp28
a(S'I?OB?@?GA`@???AOA?'
(ttp29
a(S'I@?A?SAG?O?C??_@?o'
(ttp30
a(S'I?GG?C?_A@@??C_@GO'
(ttp31
a(S'I?OE?@??A`????a@AO'
(ttp32
a(S'I?Oa?C?C?Oa?C?@G@G'
(ttp33
a(S'I?_@?@?_OOa???QC@G'
(ttp34
a(S'I?GA?k@??OE?C?P?G?'
(((I9
I2
tg5
tttp35
a(S'I?OA_e???P?@??O@G?'
(((I9
I2
tg5
tttp36
a(S'I@?D?@AG?O??GAACC_'
(ttp37
a(S'IA??O@?O@@@OG?AO?g'
(ttp38
a(S'I?G@_@?_BA?@C???E?'
(ttp39
a(S'I?o??@?C@PAO??A_@G'
(ttp40
a(S'I?_O?k?G?OC?C?oOG?'
(((I9
I2
tg5
tttp41
a(S'I?Gc_@?O@?`C?A?@O?'
(((I9
I1
tg5
tttp42
a(S'IC?@?@@?E???G?Qc?g'
(ttp43
a(S'I?GP?i???OC@C??@G?'
(((I9
I2
tg5
tttp44
a(S'I?_@?W?CC_@???PCAG'
(ttp45
a(S'I?GA?@AOE@???__@@O'
(ttp46
a(S'I?_P??G??OA?CC?k@G'
(ttp47
a(S'I?Go_@?SA?_@O??@O?'
(((I9
I1
tg5
tttp48
a(S'I?WH?Y????@CC??@G?'
(((I9
I2
tg5
tttp49
a(S'IAGC?C?CC??KGA?@?o'
(ttp50
a(S'I?O??@?OOS@AG?AO?g'
(ttp51
a(S'I?GP???GAA@@O?O?A_'
(ttp52
a(S'I?GR???C@__GC?OOO?'
(((I9
I1
tg5
tttp53
a(S'I?WI_????P?GCC?@O?'
(((I9
I1
tg5
tttp54
a(S'I?GC?c?CC??KGA?@?o'
(ttp55
a(S'I?Oa???CAOa???PC@G'
(ttp56
a(S'I?O?O@?OOQAAG?C?@_'
(ttp57
a(S'I?O?_G?OE@@?G??@I?'
(ttp58
a(S'I@?A?@?O@`??CCQGAG'
(ttp59
a(S'I?G??@A@?@@@O__@?o'
(ttp60
a(S'I???O@?S_gC@?AD?AG'
(ttp61
a(S'I?OP_??CA__G??OPO?'
(((I9
I1
tg5
tttp62
a(S'I?_@@g?C?oC?C?_OG?'
(((I9
I2
tg5
tttp63
a(S'I?OG???Ca?AP??PK@G'
(ttp64
a(S'I?O?O??ga?_@??c@CO'
(ttp65
a(S'IEO????C?qA@@?OG_?'
(((I9
I0
tg5
tttp66
a(S'I?G`_@?OC?GE??O@O?'
(((I9
I1
tg5
tttp67
a(S'I?O?O@?oOCA?CGAG@G'
(ttp68
a(S'I?GC?_?CEA??OOOC?g'
(ttp69
a(S'I?GP_??CC?KI??O@O?'
(((I9
I1
tg5
tttp70
a(S'IA??OC?G@CAGC??GD?'
(ttp71
a(S'I?G@?G?__@@A?C_@OO'
(ttp72
a(S'IA?A?A?CC@??O__H@O'
(ttp73
a(S'I?GO?@?_BAC???OOAG'
(ttp74
a(S'I?G`???_@?`@G??@C_'
(ttp75
a(S'IA???A?O@@@OC??WGG'
(ttp76
a(S'IAo??A?G?Q?CD?OO_?'
(((I9
I0
tg5
tttp77
a(S'I@?R???C@?AGC?o_O?'
(((I9
I1
tg5
tttp78
a(S'IA??_C?_A@C???o@X?'
(ttp79
a(S'IA???C?gACC???o@L?'
(ttp80
a(S'I@GR???C?_?GCGO?O?'
(((I9
I1
tg5
tttp81
a(S'I?oa???C?Oa???PC@G'
(ttp82
a(S'I?GP?@?GAAG?O?O?B?'
(ttp83
a(S'I?GI?C?C?`??OCO?G_'
(ttp84
a(S'I?o??@?D?AAA??PC@G'
(ttp85
a(S'I?Og???CA?I?C?PC@G'
(ttp86
a(S'IE?@?C??AA@?GC_@O_'
(ttp87
a(S'I?O__??CA__CO?OO@_'
(ttp88
a(S'IG?A?_?C@?A?CC@K@G'
(ttp89
a(S'I?Cg???OA@A?GAOC@?'
(ttp90
a(S'IE???C??ACC?G?o@H_'
(ttp91
a(S'I?_@_k@??OA?C?P?G?'
(((I9
I2
tg5
tttp92
a(S'I?GD???__?_?W?O@C_'
(ttp93
a(S'I?C?OC?OOWAG?AC_@G'
(ttp94
a(S'I?GO?@@?EC??Og_@?o'
(ttp95
a(S'I?OR?A?CAA??K?OoO?'
(((I9
I1
tg5
tttp96
a(S'I?GP_??CA?_G?CO@O?'
(((I9
I1
tg5
tttp97
a(S'I?o??A?C@a@O??@OA?'
(ttp98
a(S'I?C?_K@?O?g?@?a@?O'
(ttp99
a(S'I?CG_??O_@G?O?oG@?'
(ttp100
a(S'I?o????C@aAO??@@B?'
(ttp101
a(S'I?OB???CAa@?C?@OAG'
(ttp102
a(S'I?G@_??_aC@?SC??E?'
(ttp103
a(S'I@?C__?OB???C?OGKG'
(ttp104
a(S'I?C?o??OQA_?OC_G??'
(ttp105
a(S'I@G????_aC??S?OCEG'
(ttp106
a(S'I?_?O@?O@QAC??C_@G'
(ttp107
a(S'I?_@__@o?_@?C?O?C?'
(((I9
I3
tg5
tttp108
a(S'I?OC?@?gA?_???a@CO'
(ttp109
a(S'I?OU???C?_BGCG??O?'
(((I9
I1
tg5
tttp110
a(S'IKO??@?KA?_@H?O?_?'
(((I9
I0
tg5
tttp111
a(S'I@G@???_Aa??S?O?U?'
(ttp112
a(S'I?C?OD@?O?c_G?E??g'
(ttp113
a(S'I?O_?_?DA?A@??PK@G'
(ttp114
a(S'I?OA?w?G?OB?CO?CG?'
(((I9
I2
tg5
tttp115
a(S'IB??_C?o??G???o@[?'
(ttp116
a(S'IB???@?W??COG?A@C_'
(ttp117
a(S'I?_@?A?CAQ_???PC@G'
(ttp118
a(S'I?CC?C?GD??ECAAG?G'
(ttp119
a(S'I?G@_G?_OS@AOC??G?'
(ttp120
a(S'I?C?_E?_PAG?CC??A?'
(ttp121
a(S'I?C?_C@?AO_GGQ?C@?'
(ttp122
a(S'I?G??G@CPC??S__GA?'
(ttp123
a(S'I@G??G?_OS?AO?OCGG'
(ttp124
a(S'I?g??@?O@a?O?CO?E?'
(ttp125
a(S'IAO?O@?O?@@OG?AO?g'
(ttp126
a(S'IB??_@?W??COC?AGC?'
(ttp127
a(S'I?GS?S???O?ACA?G?W'
(ttp128
a(S'I?_E?@?WOO@??g?o?W'
(ttp129
a(S'IC?S?@??@?GAGAQSAG'
(ttp130
a(S'I?G@_@@?_?g?CA??CO'
(ttp131
a(S'I?_B?@AC?_@??CBO?W'
(ttp132
a(S'IA?@?I?OA@@??C_@W?'
(ttp133
a(S'I?G@_@?_DAG?C???E?'
(ttp134
a(S'I?OE???CAa??C?PCAG'
(ttp135
a(S'I?Gc???CE???OW_@?o'
(ttp136
a(S'IA??OG?C@CA?S_@G@G'
(ttp137
a(S'IA??OA?O@@AO???HH?'
(ttp138
a(S'IB??OA?W??CO???HK?'
(ttp139
a(S'I?C?oC?OO?II?C????'
(ttp140
a(S'I?O?`I?C@?_@C??@G?'
(((I9
I2
tg5
tttp141
a(S'I?_P?Y???_@?CG?DG?'
(((I9
I2
tg5
tttp142
a(S'I?_@?g@W?_@???O@C?'
(((I9
I3
t(I2
I-2
tp143
tttp144
a(S'I?OB?@?CA`A?C?A?B?'
(ttp145
a(S'I?CA?K?G@`_??C?@@?'
(ttp146
a(S'I?OO?@?_AOa???QC@G'
(ttp147
a(S'I?CG?g@O??@?GAOSCG'
(ttp148
a(S'I?GH_W???OCC??O@O?'
(((I9
I1
tg5
tttp149
a(S'IA?C?@?CA?@?O_`W?W'
(ttp150
a(S'IA?A?C?GC?C?G?Q@D_'
(ttp151
a(S'I@?K?@?o????G_``?o'
(ttp152
a(S'I?C@?G?E?c??Sc@GAG'
(ttp153
a(S'I?O`_@?_A?_@G?P@O?'
(((I9
I1
tg5
tttp154
a(S'I?_?O@@?O?a?CeCC?W'
(ttp155
a(S'I?GP_??C@A?B?AO@O?'
(((I9
I1
tg5
tttp156
a(S'I?OG?A?CCD?GGA?D@_'
(ttp157
a(S'IAo??A?O?Q?OC?pO_?'
(((I9
I0
tg5
tttp158
a(S'I@G@???__?_?S?OGSG'
(ttp159
a(S'I?G@?KA?C@G???o@w?'
(ttp160
a(S'I@G??G?oOC??C?OCIG'
(ttp161
a(S'I?g??@?OCaCO??O?E?'
(ttp162
a(S'IAG@?A?_?AG?S?O?T?'
(ttp163
a(S'I?G??C@?OS?AO?_@G_'
(ttp164
a(S'I?g?O??O_CCA??_@D?'
(ttp165
a(S'I?G??GA?DD??W?O@G_'
(ttp166
a(S'I?GE?_?CCA??OOOC?g'
(ttp167
a(S'I?g????O_C@A?C_@CO'
(ttp168
a(S'I?OH?@?CA@A?C?AG@G'
(ttp169
a(S'I?GH`G???OC@??O@O?'
(((I9
I1
tg143
tttp170
a(S'I?_@?e@??OI???P@G?'
(((I9
I2
tg143
tttp171
a(S'I?GC?o?CA???OOOC?g'
(ttp172
a(S'I?GC_k???OCCC?O?G?'
(((I9
I2
tg143
tttp173
a(S'IA?I??@C??C?Go_P?o'
(ttp174
a(S'I?C??B?OOaCQ?A?O??'
(ttp175
a(S'IE???A??@A@P??OK?G'
(ttp176
a(S'I?O@_@?_e?@?C??OEG'
(ttp177
a(S'IA???@?W@AAP???@C_'
(ttp178
a(S'I@C????GPC?I??_H?O'
(ttp179
a(S'I???_@?WCGCOCGAGC?'
(ttp180
a(S'I?G??C@COC?GO?oGA_'
(ttp181
a(S'I?C??CA@?aG?O?pG@?'
(ttp182
a(S'I?C?_C?CE@?GOG_G@?'
(ttp183
a(S'I????@?WCCC_GGA@C_'
(ttp184
a(S'I?_B?A?CDB????OOAG'
(ttp185
a(S'I?_?OH@Oc?A?@?`@AO'
(ttp186
a(S'IE??OS??A?I?D?a@@O'
(ttp187
a(S'IA?I?A?K?@C?O_OO@_'
(ttp188
a(S'I?_@?H@??OA??W?C?G'
(ttp189
a(S'IA??OP?oC??OG_`@?o'
(ttp190
a(S'IA_??@@P??I?C_`@@O'
(ttp191
a(S'I?CC@C@GB???C?QGAG'
(ttp192
a(S'I?O?_@?p?P@@??Ag?G'
(ttp193
a(S'I?CC?Q?o@_?GC?OGE?'
(ttp194
a(S'I?G`???_B@@?G?OOA?'
(ttp195
a(S'I?O?_G?CBB??G?OOA?'
(ttp196
a(S'I?C??CO?OaAAO?OG@?'
(ttp197
a(S'I?O?_??C_?`P??PC?g'
(ttp198
a(S'I???_A_?OOcOO_?H@?'
(ttp199
a(S'I?O?_??__?g?C?`@PO'
(ttp200
a(S'I?GO?@?OB?_GHC?@@_'
(ttp201
a(S'I?O?_??_a?`@??`@OO'
(ttp202
a(S'I????C_?OcCAC?oGH?'
(ttp203
a(S'I?O?O@?OO?`OG?AO?g'
(ttp204
a(S'I?GA?k@G?OC?COO?G?'
(((I9
I2
tg5
tttp205
a(S'I?O?_G?OCP?AG??@G_'
(ttp206
a(S'I?GR???C?__GCCO?O?'
(((I9
I1
tg5
tttp207
a(S'IA??`@A???CWO?oW@_'
(ttp208
a(S'I?_A?@@P?Oa??_`@@O'
(ttp209
a(S'IAO?O@?S?AACG?C?@_'
(ttp210
a(S'I?GA?@?o?QC?KGC?D?'
(ttp211
a(S'I?O?OA?OOSAAG??@H_'
(ttp212
a(S'I?G?_@?P@A?ACE??C?'
(ttp213
a(S'I???O@AA?@@@H?a??o'
(ttp214
a(S'IG??O_AG??CSO?oW@_'
(ttp215
a(S'IA??_C?GA@@?O?QOO_'
(ttp216
a(S'I?OA_G?O_@@A?C_@o?'
(ttp217
a(S'IC??OE?P??GAG??@H?'
(ttp218
a(S'IA??_@?oAC@???QSCG'
(ttp219
a(S'IAG@_G?_?@@@O?O?W?'
(ttp220
a(S'I?o??@?C@`AO??Q?B?'
(ttp221
a(S'I?GD???_BA??G?O@E?'
(ttp222
a(S'I?GB?@@?O?g?C__@OO'
(ttp223
a(S'I?o????C@a@O??POAG'
(ttp224
a(S'IS???@@?A?C?SGaWAG'
(ttp225
a(S'IAO@_G?_?@A@C?Q?O?'
(ttp226
a(S'I??A?G_OOA@@GG_@OO'
(ttp227
a(S'IE??_@??AC@?O?QS?g'
(ttp228
a(S'I@?A?C?OOS??GG_@G_'
(ttp229
a(S'IK??O??H??c@??OC?g'
(ttp230
a(S'IA??OEA_?A@?HC@O?o'
(ttp231
a(S'I?_?_C?GAS@?OGAOC?'
(ttp232
a(S'I?O?OEO?O__GC??G@?'
(ttp233
a(S'IA??OA?O@CAD???@G_'
(ttp234
a(S'I???_C?OOA@_CG?WOG'
(ttp235
a(S'IA?@???_?a@@O?s?C_'
(ttp236
a(S'IAG??A?O?C@GCE??CO'
(ttp237
a(S'IS???@@?B???G__p?o'
(ttp238
a(S'I?WG_G?C?@G?O?O?H?'
(ttp239
a(S'I?_@?A?C@a@O??@OA?'
(ttp240
a(S'IE??_A???Q??TC?G??'
(ttp241
a(S'IH??C??C@?GAGAPSAG'
(ttp242
a(S'I?C?O_G?QGC?HA?C@G'
(ttp243
a(S'I?g??@@?_?cO??OCCG'
(ttp244
a(S'I@O??A?C_S??CA@g?W'
(ttp245
a(S'ICCC?A@?B???C_OKAG'
(ttp246
a(S'I?C@?E?C?`?@G??@A_'
(ttp247
a(S'I?_E@@?O@O????ao?G'
(ttp248
a(S'IC??OO@?A_??OgSC?g'
(ttp249
a(S'IH??C??CB???GO_p?o'
(ttp250
a(S'I?O??@?hA?_@C?QCCG'
(ttp251
a(S'I?G??C?DABA?OK?@@_'
(ttp252
a(S'I?OA?C?C?a_?CC@WAG'
(ttp253
a(S'I????G_PA@??KC_@IO'
(ttp254
a(S'I?G??G?p@?_?KC?@k?'
(ttp255
a(S'ICW????D??a@?_OH_?'
(((I9
I0
tg5
tttp256
a(S'I?OY???C?oCGC?_OO?'
(((I9
I1
tg5
tttp257
a(S'I?_?OK@G@?@???_@E?'
(ttp258
a(S'I?O@O??G?P?@C?Ag?G'
(ttp259
a(S'I?G@_@?COAg?CA??@O'
(ttp260
a(S'I?O?_??C@Q@Q??@O?g'
(ttp261
a(S'I?O?_??oAAA?C??`T?'
(ttp262
a(S'IAO@O??_?AG?K?c?D?'
(ttp263
a(S'I?GA_C?oOC@@??O?I?'
(ttp264
a(S'I?_??H?O?cA?O_@@B?'
(ttp265
a(S'IB???@?W??COC?QGCG'
(ttp266
a(S'I?G@_??_BA@@??O?E?'
(ttp267
a(S'IA???@?S@C@CG?AO?g'
(ttp268
a(S'I?Ca@???D?@?GAOSAG'
(ttp269
a(S'I?C?__G?PCG?GA?D@?'
(ttp270
a(S'I?GP?@??BAG?C??OAG'
(ttp271
a(S'IA_??@?C@@AO??QC@G'
(ttp272
a(S'I?GS???OAA??W?O@A_'
(ttp273
a(S'I@OI_????OACC_?@O?'
(((I9
I1
tg5
tttp274
a(S'I?G?_G?`@A@@O?O?E?'
(ttp275
a(S'I?_G?A?CO?C?GaOSB?'
(ttp276
a(S'I?C?_A?OQAG?OCO?A?'
(ttp277
a(S'I?G??A?_`CG?S?O?F?'
(ttp278
a(S'I?G??G@?PC??S?OGIG'
(ttp279
a(S'IA??_K?WA@????O@X?'
(ttp280
a(S'I?GA?C?_PC?@??o@i?'
(ttp281
a(S'IA?@?A?CC@?WCA?K@G'
(ttp282
a(S'IA??PCA_??AH@?_H@O'
(ttp283
a(S'IA?K@C?C??AGGA?D@_'
(ttp284
a(S'I?O@OA?G?@?@C??gG?'
(ttp285
a(S'I?WS_??C@A@A?A?@O?'
(((I9
I1
tg5
tttp286
a(S'I????@AA?@@@H?QC?g'
(ttp287
a(S'ICg????CC?EOCg?@_?'
(((I9
I0
tg5
tttp288
a(S'I?C__@?O@?_D??_G??'
(ttp289
a(S'IA??OA?G?P?H@A?C??'
(ttp290
a(S'I?c??A?GO?DO?g?O??'
(ttp291
a(S'I?G`??@?A?@CCC?GAW'
(ttp292
a(S'IAG@_??_?AG?S?O?T?'
(ttp293
a(S'IE?A?I??@A??C?_@PO'
(ttp294
a(S'IAO??@?S?C@CG?AO?g'
(ttp295
a(S'I?G@?A?_a?`@O?O?S?'
(ttp296
a(S'I?G??A?O_OcOCA??D?'
(ttp297
a(S'I?GA???o?Q@?KKC?CO'
(ttp298
a(S'I@??_C?_B@????o@Y?'
(ttp299
a(S'I?WC?i???OCCC??@G?'
(((I9
I2
tg5
tttp300
a(S'I@???G?P@A??G?o@E_'
(ttp301
a(S'I?_@???C@aAO??@@B?'
(ttp302
a(S'IA??O@?S@AACG?C?@_'
(ttp303
a(S'I?O?OG?cOa?@??SCAG'
(ttp304
a(S'IC?@?@?_A__@??QC@G'
(ttp305
a(S'I?GG?C?cA@C???_@H?'
(ttp306
a(S'I?O?_@?C@PAQ??A?@_'
(ttp307
a(S'I@?A?@?GAO@??s?c?W'
(ttp308
a(S'I?OQ?A???QG?C?Oc@G'
(ttp309
a(S'I?O?_@AGA@?GO?OO@_'
(ttp310
a(S'I?O?_G?_@P_?G??@H?'
(ttp311
a(S'I@?A?@?CC_??CYAC?W'
(ttp312
a(S'I?O?_A?oAA@?C??oS?'
(ttp313
a(S'I?O?__?_C?@GCC?GCW'
(ttp314
a(S'I?O?_G?CBB??C??OAG'
(ttp315
a(S'I??A?C?i@C?@??o@M?'
(ttp316
a(S'ICW????CA?_G?CS@_?'
(((I9
I0
tg5
tttp317
a(S'I?G@_??O?Og?CA??L?'
(ttp318
a(S'I?Co???_D?@?GAOSAG'
(ttp319
a(S'IG??OO@GB???COOKAG'
(ttp320
a(S'I???O@@?OG?OGGQC?g'
(ttp321
a(S'I?C?_C?Q?a?CCC?GQ?'
(ttp322
a(S'I?C@?A?P?`?_?C?HI?'
(ttp323
a(S'I?OA?i@G?OC?CO?@G?'
(((I9
I2
tg5
tttp324
a(S'I?O??@?_Ad?@C?QCAG'
(ttp325
a(S'I???O@@@?_Kc??QCAG'
(ttp326
a(S'I?GS_??C@?DI?A?@O?'
(((I9
I1
tg5
tttp327
a(S'I?G??@@?OC?AO_OC?g'
(ttp328
a(S'I?oG?@?CA@A???QC@G'
(ttp329
a(S'I?_?OD?CA@A?OGE?@G'
(ttp330
a(S'I?_?OC?G@c?G???PE?'
(ttp331
a(S'IB??O@?W??CGG?S?C_'
(ttp332
a(S'I?OB?@?GAaA?C??@F?'
(ttp333
a(S'I?OB?@?GA`??C?A?B?'
(ttp334
a(S'IH?E???G?O??CY?C?W'
(ttp335
a(S'I?WG_G???@@@O?O?G_'
(ttp336
a(S'IA?@?A?_?Q??SCcGC?'
(ttp337
a(S'IAG?OA?O?ACO?AO?D?'
(ttp338
a(S'IE??OC???_IOO?O?H?'
(ttp339
a(S'I?G?OG?p@A?@??O_CG'
(ttp340
a(S'I??A?_G?PGG?K?_@PO'
(ttp341
a(S'I??@_@@?O?c_G?A@O_'
(ttp342
a(S'I?GU???C@?DGC?__O?'
(((I9
I1
tg5
tttp343
a(S'I?Gg???_@?K?G?O@D?'
(ttp344
a(S'I?CG?G?G@B??GA?D@?'
(ttp345
a(S'I?GP?@?GAAG?CC??AO'
(ttp346
a(S'IA?@?W?CC???G?`@?o'
(ttp347
a(S'IA?A?@?GC?@?Cq?S?W'
(ttp348
a(S'I?GA?@?C@a_?CQ?O@O'
(ttp349
a(S'IA??O@?CACA?O_`G@O'
(ttp350
a(S'IA?A?A?CC?C?G_PC@_'
(ttp351
a(S'IAOC?@?C??@GGA@S?g'
(ttp352
a(S'IA???@?CAC@?O_`W?W'
(ttp353
a(S'I?G`???_@Og?G??@D?'
(ttp354
a(S'IA??_C??A@A?O?Q@P_'
(ttp355
a(S'I???O@@GOG?OO__`?o'
(ttp356
a(S'I?O??@?`??`@G?RC?g'
(ttp357
a(S'IA?@?@?_?aG?O?s?D?'
(ttp358
a(S'IAGA?@?C?AC?KQC?@O'
(ttp359
a(S'I?O?O@?_AQA?OOC_@G'
(ttp360
a(S'I?OA?i@G?O??CO?DG?'
(((I9
I2
tg5
tttp361
a(S'I?CC?C?GA`?GOGOO?_'
(ttp362
a(S'I?o?O@?__`?@??SCAG'
(ttp363
a(S'I?C@?B@?O?a_O_??O_'
(ttp364
a(S'I?G?OD?_OG?AO?E?@G'
(ttp365
a(S'I?CG?A?_OAC?O?_H@?'
(ttp366
a(S'I?Oc???G?O_CGA?D@_'
(ttp367
a(S'I@GR???C@??GC?o_O?'
(((I9
I1
tg5
tttp368
a(S'I?CC@A@?B???C_OKAG'
(ttp369
a(S'I?GA?@?O@P_G??_O@_'
(ttp370
a(S'I???OA?Y@C?A?A?PK?'
(ttp371
a(S'I?GG?O?OA?@P?_OCCg'
(ttp372
a(S'I?WG_G?C?@?@CA??GO'
(ttp373
a(S'ICg??A?CC?COCg?@_?'
(((I9
I0
tg5
tttp374
a(S'I@?G?A?CEC??Cq?C?W'
(ttp375
a(S'I?G??E?__C@@O?O_C_'
(ttp376
a(S'I?OC?@?_A`??C?QCAG'
(ttp377
a(S'I?G@?GA?CD??W?O@G_'
(ttp378
a(S'I?G?OE?__CG?O?O_D?'
(ttp379
a(S'I?GP_??CA?cH??O@O?'
(((I9
I1
tg5
tttp380
a(S'IAG?_@?O?ACOCA??D?'
(ttp381
a(S'I?G?OC?gOC??OCO_G_'
(ttp382
a(S'I?g?O??O_C?A?COCCG'
(ttp383
a(S'I?C?OCA?AGAK??SC@G'
(ttp384
a(S'I?G?O??_`C_?SC?GCG'
(ttp385
a(S'I?O?_@?_AA_@??`@OO'
(ttp386
a(S'I?GA@E?C@?_@??O@G?'
(((I9
I2
tg5
tttp387
a(S'I?OG?A?CAAG?C?PC@G'
(ttp388
a(S'IC?A?OA??_CGCA_PQO'
(ttp389
a(S'IG??OO?W?__CDA?WAO'
(ttp390
a(S'I?G@?A?__P?@O?S___'
(ttp391
a(S'IC?@?A?C_?GQ??_P?O'
(ttp392
a(S'IA?@?A?CAA@?O?TO?g'
(ttp393
a(S'IAO?_A?_?A@?CA@OOO'
(ttp394
a(S'IA?A_C?OA@A?CCQ?O?'
(ttp395
a(S'I?C?OC?T?`AG?AG?B?'
(ttp396
a(S'IA??OA?S@CACG??@H_'
(ttp397
a(S'IA??OA?W@C?CC??WG?'
(ttp398
a(S'I?O@O??CA?H?G?Bo?G'
(ttp399
a(S'I?G????C?oGC?k??OO'
(ttp400
a(S'IB??_??C??@O?ARC?G'
(ttp401
a(S'I?O@O??CA?a@C?BG?G'
(ttp402
a(S'IA???@?O?a?@O?o?S_'
(ttp403
a(S'I?S??A???Q?@D?@g?G'
(ttp404
a(S'I@??@@@?A_??PGQC?g'
(ttp405
a(S'IAG??B?O?ACOCA??D?'
(ttp406
a(S'I?O@?@?`?_`?C?AWCG'
(ttp407
a(S'I?G??C?_BC@?KC@?I?'
(ttp408
a(S'I????@A@?@A@E?aG?O'
(ttp409
a(S'IQ??@C?CC?AGGA?D@_'
(ttp410
a(S'ICG@_C??CQ?A?A?@O?'
(ttp411
a(S'I???c?GQ?P?A??_P?o'
(ttp412
a(S'I?_?OC@GOC?G??_@AO'
(ttp413
a(S'IE??O@??@A?PG?_@?o'
(ttp414
a(S'I?O??@?_Oc@B??QC?g'
(ttp415
a(S'I?O??@?DAAG?G?Pc@G'
(ttp416
a(S'I??A?G?O_WAAGCOCS?'
(ttp417
a(S'I?C?_A?_@@`P?c?G?O'
(ttp418
a(S'I?G??C?CQCG?OCO_GG'
(ttp419
a(S'I?OA?A?C?bG?CG?SB?'
(ttp420
a(S'I??A???OaGA?KCOCU?'
(ttp421
a(S'I?GA?H?C@?D???`o?G'
(ttp422
a(S'I?C@?E?C?O_@G?@??_'
(ttp423
a(S'I?CS?@???_AG?A_@AO'
(ttp424
a(S'I?C?_??C?oGC?k???O'
(ttp425
a(S'I?CA?I@C?_C??O_@AO'
(ttp426
a(S'I?C_?A?C@@?@O?o?A_'
(ttp427
a(S'I?CA_??C?`?G?C_@AO'
(ttp428
a(S'IE??OG??@CI?C?_@HO'
(ttp429
a(S'I?G?OI?PBA@@??O?E?'
(ttp430
a(S'IA??OA?oACE???O@L?'
(ttp431
a(S'I@G??@?_bC??C?OCEG'
(ttp432
a(S'I????@?O@c@c?AQOAG'
(ttp433
a(S'I??@?AA?EH??G?ODW_'
(ttp434
a(S'I?GL?A???P@GO?OGO?'
(((I9
I1
tg5
tttp435
a(S'I????CA?Ag@S?C_@GO'
(ttp436
a(S'I?_??@?O@c@C??QOAG'
(ttp437
a(S'IA???I?OACC?C?pOG?'
(ttp438
a(S'I@?@?G?gOC??C?_@IO'
(ttp439
a(S'I?G??A?D?OCH?Y?G@O'
(ttp440
a(S'I@???C?GOQ?Q??OK?G'
(ttp441
a(S'I?G?_@?C?@CWO?O?B_'
(ttp442
a(S'I?C?O??GA@?OGk?C??'
(ttp443
a(S'IAO?OA?S?CACG??@H_'
(ttp444
a(S'I?O?OA?_AcA?SO?@J?'
(ttp445
a(S'I?O?O@?OOa?AC?CW?G'
(ttp446
a(S'I???OA@?OW?AH?_@Go'
(ttp447
a(S'I???_CA?AG@S?C_@GO'
(ttp448
a(S'I?G?OG?WOCG?CC?_GO'
(ttp449
a(S'I?O?_@?_BC@?C?BOAG'
(ttp450
a(S'I?CC@C?_C_??CGOKGG'
(ttp451
a(S'I?C__??_@@_?O?oG@?'
(ttp452
a(S'I?C?_C?_OA_?O?oO?_'
(ttp453
a(S'I?CC?C?GE??COGQG?G'
(ttp454
a(S'I?C?_??O_?cS??_P?_'
(ttp455
a(S'I?G??@?W@CGI??O?D?'
(ttp456
a(S'IAO?_??_?AA?CA@@PO'
(ttp457
a(S'I?_??@?CBC@??Oao?W'
(ttp458
a(S'I?GA?C?gCCC?C?O?M?'
(ttp459
a(S'I?G??G?P@A??CCOGEG'
(ttp460
a(S'I????C?H??c_G?Q@D_'
(ttp461
a(S'I?G?_C?oOCG?C?O?J?'
(ttp462
a(S'IQ???@AG??CKO?oW@_'
(ttp463
a(S'IA??OEAG?A@T?C?G?o'
(ttp464
a(S'IC??_@G?A?c@HAOcD?'
(ttp465
a(S'I@?O_`?OC??OCa?G?W'
(ttp466
a(S'I?G??@?C?`?I?E??OO'
(ttp467
a(S'I??A@?_?c?B?KE?CQO'
(ttp468
a(S'I?WA?@?O_@?ACC?GOG'
(ttp469
a(S'I???_@?_OS?_?Ga?@O'
(ttp470
a(S'I?C?_?A?BG?K??_POO'
(ttp471
a(S'I?c??A?H?@?A?c?@?O'
(ttp472
a(S'IA??O??W@@?OG??@H_'
(ttp473
a(S'IG??OG@OC_@?O?_HE?'
(ttp474
a(S'I?C@_O@__?_?W?P@O_'
(ttp475
a(S'I?Cc??@GB???COOKAG'
(ttp476
a(S'IG???O?WCO?SCA?g?W'
(ttp477
a(S'I????@?X?WC@?AQ_CG'
(ttp478
a(S'I??A?IGA@?_?CC_@SO'
(ttp479
a(S'I????COC_`?a?AOC@G'
(ttp480
a(S'I?O?O@?o_`?@C?CGAG'
(ttp481
a(S'I?_O_[???_@?CGOCG?'
(((I9
I2
tg143
tttp482
a(S'I?GC?_?CD??CCa?G?W'
(ttp483
a(S'I?GT???C@a@A?AO?O?'
(((I9
I1
tg143
tttp484
a(S'I?O??A?S_PG?C?Cg@G'
(ttp485
a(S'I?C__??gE?@?CS?CAO'
(ttp486
a(S'I?C?_E?oEA??C?OOE?'
(ttp487
a(S'I?C??KAH?@G?C?OSGG'
(ttp488
a(S'I@???`?SC_?SGAAC?_'
(ttp489
a(S'I??@@@_?cCA?GE?DA_'
(ttp490
a(S'I@O?_D??A@??C?aGQ?'
(ttp491
a(S'IO?O?@`?A?C?SGaWAG'
(ttp492
a(S'IGO?C?A_?PA@??_H@O'
(ttp493
a(S'I?S??A?G?@?@D??gG?'
(ttp494
a(S'I?GA?C?cPC?@??_@I?'
(ttp495
a(S'I???OC?U?PAG?AC_@G'
(ttp496
a(S'I?g?O??O_CCA??OOCG'
(ttp497
a(S'I?C?`?A?`?K_G??@P?'
(ttp498
a(S'IAG?_@?O?ACP??O?C_'
(ttp499
a(S'I?C?_CA?AG?K??_POO'
(ttp500
a(S'I?CA?C?GBA??KO?oO?'
(ttp501
a(S'I?C?oC?P?@?H??_GA?'
(ttp502
a(S'I@?K?A?CA???Cq?C?W'
(ttp503
a(S'I@OQ_??C?_?GCG?@O?'
(((I9
I1
tg143
tttp504
a(S'I?GO_??OAA@@O?O?A_'
(ttp505
a(S'I?G??A?CCACCO?O?Q_'
(ttp506
a(S'I?CC?AA_?Q??KI?SCO'
(ttp507
a(S'I?C??EA@?@G?W?OPG_'
(ttp508
a(S'I???OC?X?a?a?C?@C_'
(ttp509
a(S'IA???C?G?R?P??_H?O'
(ttp510
a(S'IAG??@?W?ACP??O?C_'
(ttp511
a(S'I????C@?Og?OO?o@I_'
(ttp512
a(S'I???OCAA?@@@G?e??o'
(ttp513
a(S'IAGA?E?o?@??C?O?X?'
(ttp514
a(S'I?O@_@?C?@G?C?AGBG'
(ttp515
a(S'IB???@?O??CGG?_@S_'
(ttp516
a(S'I?C?o??G@?_L?A?C??'
(ttp517
a(S'I?g????G?OcO??OCL?'
(ttp518
a(S'I?G?oC???OCE?A??@?'
(ttp519
a(S'I???_C@?OG?AO?o@W_'
(ttp520
a(S'I???O@?O@QAc?AC_@G'
(ttp521
a(S'I???_AAA?@COC?OKH?'
(ttp522
a(S'I???O@?Q?CAE?AQC@G'
(ttp523
a(S'I???_@@?OG?AH?QC?_'
(ttp524
a(S'I???OA@?OG?O?G_HGO'
(ttp525
a(S'IA??OC?_?cC@G?P?G_'
(ttp526
a(S'IA??_??_@AA@O?P@O_'
(ttp527
a(S'I??@?A?__G@@O?s_C_'
(ttp528
a(S'IAC@???_?AA@O?pGO?'
(ttp529
a(S'I?WA?@?Oa@??GC?@Q?'
(ttp530
a(S'I?G??GAOCD??W?O@G_'
(ttp531
a(S'I?WA???O_P?AGC?@O_'
(ttp532
a(S'I@?A?@?OB?@?C?bOAG'
(ttp533
a(S'I?_@?O?C___A??PK@G'
(ttp534
a(S'I?_?O@?CB@C?G_C_@G'
(ttp535
a(S'I?_@?A?C?U??CQ?o?W'
(ttp536
a(S'I?C?_G?OAP_?Gc?C@?'
(ttp537
a(S'I?_??@?CBC@?GSA_?W'
(ttp538
a(S'I?_??@?D?_c?Ca@O?W'
(ttp539
a(S'I?G?OEAP?@?_??OGH?'
(ttp540
a(S'I?G@?@?__G??SCcGE?'
(ttp541
a(S'I?C?OA?GOC?IAA?C@?'
(ttp542
a(S'ICG?OE?@??GAO?O?H?'
(ttp543
a(S'I?G?OA?O_?cO?AO?D?'
(ttp544
a(S'IAC@?A?_?A??SCcGC?'
(ttp545
a(S'IAC?OA?G?@?H@A?C??'
(ttp546
a(S'I?S??OO_O?DA??gWGG'
(ttp547
a(S'I???OC_?O__OO?_PG_'
(ttp548
a(S'I???_@OEA?_@O?RC?g'
(ttp549
a(S'I?_?_G?C@c@?O_@OA?'
(ttp550
a(S'I???O@OA?__?Wo?O?_'
(ttp551
a(S'I?_G?[?G?_@?COOCG?'
(((I9
I2
t(I2
I-2
ttttp552
a(S'IA??O@?_@AA?W?T?@_'
(ttp553
a(S'I?OA?@@@??IAC?RC@G'
(ttp554
a(S'IA?A?A?CC?C?O_PG@G'
(ttp555
a(S'IA???@?_@C@?W?RO?g'
(ttp556
a(S'I?_S?@???_@?Ci?S?W'
(ttp557
a(S'I?GL?????P@GO?oGO?'
(((I9
I1
tg5
tttp558
a(S'I?_?_@?O?r_O?C?G@O'
(ttp559
a(S'IB_????G?OBGDO?C_?'
(((I9
I0
tg5
tttp560
a(S'I@???@?H?P??Og_W?o'
(ttp561
a(S'I?CA???GBAC?CO_oO?'
(ttp562
a(S'I?_@?I?WOG?@??O@Y?'
(ttp563
a(S'I@??_G?P??E?CAW_L?'
(ttp564
a(S'I?C@?A?Q?c?E?C?@G_'
(ttp565
a(S'IC??_G?OCCG?C?_@IO'
(ttp566
a(S'I@GG?C?CCC?KGA?@?o'
(ttp567
a(S'I@??@@?GD??ACAEG?W'
(ttp568
a(S'I?Ca??@OC_@?O?_HE?'
(ttp569
a(S'I?C@@O?_C_@?GA?DI?'
(ttp570
a(S'I?C??E?p??g?G?OPK?'
(ttp571
a(S'I?_??I?K@T_??c?C@?'
(ttp572
a(S'IA_??@?C?C@?O_`W?W'
(ttp573
a(S'IP???C?G?O_KCA?K@G'
(ttp574
a(S'I?GT???C@A@AGAO?O?'
(((I9
I1
tg5
tttp575
a(S'I?_A_@?CCOC??G`??O'
(ttp576
a(S'I?G?O@?W_@@QOC???_'
(ttp577
a(S'IA??O@?W@A?PG??@C_'
(ttp578
a(S'I@G??@?COC?IO?OC?g'
(ttp579
a(S'IB???A?W??COC?OGK?'
(ttp580
a(S'I?G?o??O@A@Q?C??C_'
(ttp581
a(S'I?_A_@?KC?@??s?CAO'
(ttp582
a(S'IA???A?S@@AOC??GH?'
(ttp583
a(S'I?g????O@a@O?C?@E?'
(ttp584
a(S'I?WG_G?C?@G?CC??GO'
(ttp585
a(S'I?C??A@?`C?CO?_HA?'
(ttp586
a(S'I?G@???__C_?WCO@C_'
(ttp587
a(S'I?O?O??gAA_@??c@CO'
(ttp588
a(S'I????@@?OC?AI?a@?o'
(ttp589
a(S'I?O@?@?COcG?CCAGAG'
(ttp590
a(S'I?GA?@?GD@@?Ca?OAO'
(ttp591
a(S'I@?A?CBG?O@?GA?DC?'
(((I9
I3
tg5
tttp592
a(S'I?GC?@AOC@?GCA?G?W'
(ttp593
a(S'I?C?OOGA?@A?XG???_'
(ttp594
a(S'I@G??G?o`C??C?O?EG'
(ttp595
a(S'I?O??@?COcG?SCAGAG'
(ttp596
a(S'I?OC?`?C??@GGA@S?g'
(ttp597
a(S'I?OC???G_O_CGA?D@_'
(ttp598
a(S'I?GH_????PCH?AO@O?'
(((I9
I1
tg5
tttp599
a(S'I??@_C_?Oc?AC?OGH?'
(ttp600
a(S'I?W@?OGA?@G?G?O@Q_'
(ttp601
a(S'IAG??E?O?@@P?A?@G?'
(ttp602
a(S'I?G??@?W@A_P?A?@C?'
(ttp603
a(S'I????A@C_W?CHG?C?_'
(ttp604
a(S'I?G@?G@CPC_?Cc?GAG'
(ttp605
a(S'I?O?OA?O?a@o?A@OA?'
(ttp606
a(S'I?G?OK?WOA@P?C?_A_'
(ttp607
a(S'I?G?OE?OO?GQ?C?@G?'
(ttp608
a(S'I?_@?A?CAQ@?OGDO?G'
(ttp609
a(S'I???OC?E@?aOGC@?G_'
(ttp610
a(S'I???OE?_OG@AO?SOGG'
(ttp611
a(S'I?_?_@?OCT?G?C?c?g'
(ttp612
a(S'I?O@OI@@??I?CG@@H?'
(ttp613
a(S'I?C?_CA?AGCS??_@H?'
(ttp614
a(S'I?C??CA?AgCS??_@H?'
(ttp615
a(S'I?G??C?`@A?@C?OGEG'
(ttp616
a(S'I?G@?G?__@@@?GOCOG'
(ttp617
a(S'I?C??C?H?_cK??OO?_'
(ttp618
a(S'I????C?GCSC_GGA@C_'
(ttp619
a(S'I?G?_??P?A@ACE??CO'
(ttp620
a(S'I?KGOC?O?@?H??_G??'
(ttp621
a(S'I?G_OA?_B@C?C?O?B?'
(ttp622
a(S'IAO?_@?C?@AOO?Q?@_'
(ttp623
a(S'I?O??A?C_C@B??PC?g'
(ttp624
a(S'I?G`???_A?c?G?O@D?'
(ttp625
a(S'IAO?_??C?A@OO?PO?g'
(ttp626
a(S'I?G@?A?__?g?S?O?T?'
(ttp627
a(S'I?O?O@?__`C@C?CGAG'
(ttp628
a(S'I?G?OA?O_CCACA??D?'
(ttp629
a(S'I?_@?A?C_?g?C?PC@G'
(ttp630
a(S'I?G?OG?`?`@@OG?CG?'
(ttp631
a(S'I?G@?@?__C_?SC?GCG'
(ttp632
a(S'I?C?_G?_PAA?CC?CA?'
(ttp633
a(S'I?G?O??_aCA?SC?CE?'
(ttp634
a(S'IA_????O?a@O?C_@CO'
(ttp635
a(S'I?WG?G??@@@@G??@G_'
(ttp636
a(S'I?CA?C?GBAA?CS?_O?'
(ttp637
a(S'I@?A?@AO?a?C??_H@O'
(ttp638
a(S'I?G??G?OBD??GCO@I?'
(ttp639
a(S'I?G@?G?O_@@?CK?GOG'
(ttp640
a(S'I?OC?@?CQ?@?GAASAG'
(ttp641
a(S'I?CA?I?CC?C???PCAG'
(ttp642
a(S'I?CS?A??@?CG??_@A_'
(ttp643
a(S'I?O?_@?SQA??C??WAG'
(ttp644
a(S'I?CC?Q?O?_?CCA?GAO'
(ttp645
a(S'I?CO?A?O@a?A???@@_'
(ttp646
a(S'I?CB???G@@?G??_@B?'
(ttp647
a(S'I?G?_@?OCS?M?A?O?o'
(ttp648
a(S'I?_??@?_@cA?OOA@B?'
(ttp649
a(S'IB??OP?o???OG_`@?o'
(ttp650
a(S'I@??OG?WOQ?@DG?g?W'
(ttp651
a(S'I@??`@@?@_?ACa?GOO'
(ttp652
a(S'I?G?OA?OA@?GO?O?B?'
(ttp653
a(S'I???OKAA?@@@H?a@?o'
(ttp654
a(S'IO?O?@@?@?GAGAQSAG'
(ttp655
a(S'IA?A?@@P??I?C_`@@O'
(ttp656
a(S'I?C?_c?C?_CD@AAO?_'
(ttp657
a(S'I@??_@?`?P??O?Qc?g'
(ttp658
a(S'IA??_@?CC?GCPc?C?g'
(ttp659
a(S'IG??O_AI??CSO?oW@_'
(ttp660
a(S'I@??OP?q??_OG_`@?o'
(ttp661
a(S'I?G?OG?q?Q?@??ScCG'
(ttp662
a(S'I???O_G?OcC`??OC?g'
(ttp663
a(S'ICO???G?COGQG?_P?o'
(ttp664
a(S'IC??OAA??OBX?K?K?o'
(ttp665
a(S'IC??O@A?@?DH?Aco?g'
(ttp666
a(S'I?_?O@?E?CAAO_`G@O'
(ttp667
a(S'IA??O@?GAAA?P?_HDO'
(ttp668
a(S'IA??_C?OAC??CCPGGG'
(ttp669
a(S'IA_?O@?C?CA?O_`G@O'
(ttp670
a(S'IAg????G?Q?OCS?D_?'
(((I9
I0
tg5
tttp671
a(S'I?O@?@?_Aa?@C?c?E?'
(ttp672
a(S'I???O@?`?`C`??QCAG'
(ttp673
a(S'ICg????C@?aOCc?@_?'
(((I9
I0
tg5
tttp674
a(S'I?O?OA?G@SAE???@H_'
(ttp675
a(S'I?CC?C?GE??COGa@?_'
(ttp676
a(S'I?G??C?OCS?E??_@G_'
(ttp677
a(S'I?_@???CAQ@??GdO?W'
(ttp678
a(S'I?G@?@?_Aa_@O?O?S?'
(ttp679
a(S'I????A?D??`_Cc@G?W'
(ttp680
a(S'IA??_C?O?P?H??_HO?'
(ttp681
a(S'IA?A?C?WAAA???O@T?'
(ttp682
a(S'I?WA?O?_O?EA??Q@p?'
(ttp683
a(S'IA??OI@?@?I?D?@@HO'
(ttp684
a(S'IP???@@?A_??OWQC?g'
(ttp685
a(S'IA??_??C@A@OO?PO?g'
(ttp686
a(S'I?G@???__`?@O?S@a_'
(ttp687
a(S'I?CD?_G?Q?@?GAOSOG'
(ttp688
a(S'I?_@?AA?CH??G?ODW_'
(ttp689
a(S'IAg??C?O?P?OCCa@_?'
(((I9
I0
tg5
tttp690
a(S'I?OQ_??C?__GCC?@O?'
(((I9
I1
tg5
tttp691
a(S'IB??_@?W??CO??Q?C_'
(ttp692
a(S'I?G?O@?O@a?Q?E??C?'
(ttp693
a(S'I?GG_C?CA@??OCO?G_'
(ttp694
a(S'I?OB?@?CAP??G?Ao?G'
(ttp695
a(S'I?o??A?C@a?O??P?B?'
(ttp696
a(S'IAG@?G?g?@@@O?O?W?'
(ttp697
a(S'I???O@?O@aAc?AS?B?'
(ttp698
a(S'I?Cg???C@?CCG?_@@_'
(ttp699
a(S'IA_@?@?c?C@?Gc`??O'
(ttp700
a(S'I?__OC?c@c_??C@O?G'
(ttp701
a(S'I@?O_`?CD??OO__G?_'
(ttp702
a(S'I???S?_?OaA@?GOC?_'
(ttp703
a(S'I?S`???GE?@CC??WAG'
(ttp704
a(S'IA_??@?O?aCO??_@D?'
(ttp705
a(S'I?WG?G?C@@G?G??@H?'
(ttp706
a(S'I?O@_??CA?I?C?@?J?'
(ttp707
a(S'I?G@_??COCGAOCO?G_'
(ttp708
a(S'IB??O??C??AO?A`?GO'
(ttp709
a(S'I?O@OA??A?a@C?@GG?'
(ttp710
a(S'IA??O??C?`?OGE??GO'
(ttp711
a(S'IC???@P?@GGAGAQSAG'
(ttp712
a(S'I???OS__O?IAD?a@@O'
(ttp713
a(S'IB??OA?W??COG?O@K_'
(ttp714
a(S'I?GO_@?OAAG?O?O?B?'
(ttp715
a(S'I?o??@?G@aAO??O@F?'
(ttp716
a(S'I?GC?@B?@??GCQ?G?W'
(ttp717
a(S'I???O@?W_gC@?AS?E?'
(ttp718
a(S'I?G??G?p@?_?GCO@K?'
(ttp719
a(S'I?C@???O?aAo?A@@B?'
(ttp720
a(S'I?O?_D?_CCG?C?a?E?'
(ttp721
a(S'I@?@?a?C@@??GaC@@_'
(ttp722
a(S'I?G?OC?_BC??GCP?I?'
(ttp723
a(S'IAO@OG?g?@??C?c?H?'
(ttp724
a(S'I@?@?@?CA?@COGeO?g'
(ttp725
a(S'I?GG?C?CAA@P?S?C?g'
(ttp726
a(S'I?_??@?D??c?C_`W?W'
(ttp727
a(S'I??A?@?D?G@AO_`W?W'
(ttp728
a(S'I?_?OG?E?CCAGOa@@O'
(ttp729
a(S'I?O?_@?__CG?O?pOa?'
(ttp730
a(S'I???OCOQ?__CG?OOG_'
(ttp731
a(S'I????AAD?@?_O__H@O'
(ttp732
a(S'IC?__G@?CO?AP?OC?g'
(ttp733
a(S'I??@?AAa?@?@G?ODW_'
(ttp734
a(S'I????@?P?G@ACAbO?W'
(ttp735
a(S'I?G`???_?P@B?C?G?W'
(ttp736
a(S'I?GO?G?OBA@?G?OOA?'
(ttp737
a(S'I???_C?I??cOC?QGD?'
(ttp738
a(S'I?GA?k@G?O??COOCG?'
(((I9
I2
tg5
tttp739
a(S'I?C??SO_O?@AGAOSGG'
(ttp740
a(S'I?C_@??_D?@?GAOSAG'
(ttp741
a(S'IK?????_COC?HG_P?o'
(ttp742
a(S'I?_?OA?OCcCG??O?E?'
(ttp743
a(S'IO?O?@@?B???G__p?o'
(ttp744
a(S'IE?A?I??@CA?C??@HO'
(ttp745
a(S'I?Og???CA?AP??PK@G'
(ttp746
a(S'I???O@?Q?CAACAb?@O'
(ttp747
a(S'I??@?@_?O__O?__P?o'
(ttp748
a(S'IAC@?A?_?AG?O?pOO?'
(ttp749
a(S'IOO??@?g?`@H?G?SA_'
(ttp750
a(S'I?_@?H?D?_`??SAO?W'
(ttp751
a(S'I?GC@??CD??ACAAG?W'
(ttp752
a(S'I@???IO?P?EACAG@H?'
(ttp753
a(S'I?C@?K@?O?g?G?U??G'
(ttp754
a(S'I?CA?K?C?_E??O?@B?'
(ttp755
a(S'IB??_C?c??G?G?PCW?'
(ttp756
a(S'IA??_C?oA@@??C_@W?'
(ttp757
a(S'I?C??C?OOcAH??OGA?'
(ttp758
a(S'I?G?OOGA?PG?O?Sc?g'
(ttp759
a(S'I?G@?G?o_S??GCO_C?'
(ttp760
a(S'IG??OO?SC_?CGICC?_'
(ttp761
a(S'IA?E?A?CC???Cq?C?W'
(ttp762
a(S'I?WG?G?C@@?@C??GGG'
(ttp763
a(S'I??A?I?Q@C?@C?p_G?'
(ttp764
a(S'IB???C?GAC??G?ODK_'
(ttp765
a(S'IA_??A?C@@?O??_PGO'
(ttp766
a(S'IAO?_@?o?C@?C?AWCG'
(ttp767
a(S'I?GD?_G?Q?@?A?OSOg'
(ttp768
a(S'I@C??E?`??_?W?P@G_'
(ttp769
a(S'I?C@?A?O?`_W?A?@@?'
(ttp770
a(S'I?G@?@A?A@?O?__@@O'
(ttp771
a(S'IA?A?CAC?BA?HC?D@_'
(ttp772
a(S'I?_?O@?CB@A??_c_@O'
(ttp773
a(S'I?G?OE?OAC?D??O?I?'
(ttp774
a(S'I?g@?G?O_@AACCS?_?'
(ttp775
a(S'I?CE?_G?P?E_G?S@@_'
(ttp776
a(S'I?CAC?@GOG?GO?_@AO'
(ttp777
a(S'I?C@_@@?O?a_O_?@O_'
(ttp778
a(S'IC??OA@?_OC@CI?g?W'
(ttp779
a(S'I?O?_@?`A@?@C?QCAG'
(ttp780
a(S'I?G?OGAOCB?@@?_@?o'
(ttp781
a(S'I??@?@AI?C@CCc_G?O'
(ttp782
a(S'I?_?O@?OOCAA??QC@G'
(ttp783
a(S'I???OA?E??`OGc@??o'
(ttp784
a(S'IAG?OC?W?C?CCE??G?'
(ttp785
a(S'I?G??A?C@?_KO?O?P_'
(ttp786
a(S'I?_?OA?GO?DO?g?O??'
(ttp787
a(S'I???OK_?OOg?H?a@@O'
(ttp788
a(S'IGG?C??O@OgCCC?G@G'
(ttp789
a(S'IA??_@?C@@AOO?Q?@_'
(ttp790
a(S'I?GG?G?_@@C?G?O@H?'
(ttp791
a(S'IA_?O@?O?AAC??SC@G'
(ttp792
a(S'I?CO?@?O@__GG??@@_'
(ttp793
a(S'I?GC?C?__?_?W?O@C_'
(ttp794
a(S'IOO??@?o?`_GGC?PA_'
(ttp795
a(S'I?G?Og?WOA@@@C?_?o'
(ttp796
a(S'I?C?O??GPCCI??_W??'
(ttp797
a(S'IS???A@??oCAO_OG@_'
(ttp798
a(S'I?_?_`?KEE???S?C?O'
(ttp799
a(S'I?CA?C?GOE??O?og@?'
(ttp800
a(S'I?GG?C?C@@@H@A?O?g'
(ttp801
a(S'I?GC?AAO?P?GO?OG@_'
(ttp802
a(S'I?GS?C??AA??W?O@A_'
(ttp803
a(S'I?GC?G?OB@??G?O@I?'
(ttp804
a(S'I?C??C?P?a@a?C_GC?'
(ttp805
a(S'I???O??O_gCQ??oGD?'
(ttp806
a(S'I?O@?A?C_SG?C?@g@G'
(ttp807
a(S'I?G?_@@?_?cOO?O?C_'
(ttp808
a(S'I?_@?@?CAPA??Ge?@O'
(ttp809
a(S'I?G@_??_OA`@O?O?O_'
(ttp810
a(S'I?C@?@?W_`G?G??PA_'
(ttp811
a(S'I?_?O@?O@aAC??S?B?'
(ttp812
a(S'IA_?OS@_??A?D?a@CO'
(ttp813
a(S'I?CA?K?CC_@??O_@AO'
(ttp814
a(S'I?O?_G?c?OA??G?C@?'
(ttp815
a(S'I?CD???C@A?CG?_@A_'
(ttp816
a(S'I?O?O??__?a@C?cGCO'
(ttp817
a(S'IA??PC@?A?@?GAOSGG'
(ttp818
a(S'IG??O_?o@@@@??co?g'
(ttp819
a(S'I?O??@?_BC@?G?ROAG'
(ttp820
a(S'I??@?A?C?W@W?Q?o?W'
(ttp821
a(S'I?G??C?D?QGEGC?O?o'
(ttp822
a(S'I?G?O@?OAc_K?A?O@O'
(ttp823
a(S'I?O?_??oAAA@??O`S?'
(ttp824
a(S'I????@?E@C@AGa@O?W'
(ttp825
a(S'I?G?oC?p?AG?C?O_D?'
(ttp826
a(S'I?C?_AG?C?Ga@O?@?O'
(ttp827
a(S'I?O?O@?_AQ??WOCo?G'
(ttp828
a(S'I???_AG?C?Ha@O?@?O'
(ttp829
a(S'I?_??E?_?S@?OOOoGG'
(ttp830
a(S'I?O??@?H?R_?GA?S@_'
(ttp831
a(S'I????C?`@H?@G?o@I_'
(ttp832
a(S'I?CG?A?CC_CD@a?C?_'
(ttp833
a(S'I?G?_??OQA_?OCO@O_'
(ttp834
a(S'I?CC?@GOE???GAOcCG'
(ttp835
a(S'I?O????C?_EE??A@P_'
(ttp836
a(S'IGO???ACA?ASGC?D@_'
(ttp837
a(S'I?G??E@?_C@CO?O?A_'
(ttp838
a(S'I?G??GAOCD@?Cc?G?W'
(ttp839
a(S'I?C???GA@@G?GAOSQG'
(ttp840
a(S'I?O?_??oAa@?C??OE?'
(ttp841
a(S'I?_A?A?C_O@?PC@o?W'
(ttp842
a(S'I?C@?CB??OHGGA?oCG'
(ttp843
a(S'I?GC?@AOA@?H??OC?g'
(ttp844
a(S'I?C??C?_Oe??SC_GA?'
(ttp845
a(S'IOO??@@_OO_?GAAc@G'
(ttp846
a(S'I?G`???CB@??C?OWAG'
(ttp847
a(S'ICO?_@?@C?KAC?QG@G'
(ttp848
a(S'I?_??@?p?W_?G_`@@O'
(ttp849
a(S'IOC??C?W?q_D?A?G@?'
(ttp850
a(S'IA??OS@_A?A?D?a@CO'
(ttp851
a(S'I?O??@?COcC@CAAGAG'
(ttp852
a(S'I@?A???C__@?CY?S?W'
(ttp853
a(S'I?G@???C_`@B?C?G?o'
(ttp854
a(S'I?GL?????P@GGAOCO?'
(((I9
I1
tg5
tttp855
a(S'IAO?_G?_?C?@C?PCGG'
(ttp856
a(S'IAC?_C?O?@?H??_HO?'
(ttp857
a(S'I?G@?@?__@A@OGO?O_'
(ttp858
a(S'I?O?_OA_@O@?C??WKG'
(ttp859
a(S'I?OA?H???OA??G`@@O'
(ttp860
a(S'I?Cc???_@?G?G?_`CO'
(ttp861
a(S'I?CC?Q?C@??ACA@G?W'
(ttp862
a(S'I?G?OE??@@@@?A??A?'
(ttp863
a(S'I?GG?C?cA@????OSGG'
(ttp864
a(S'I?G@_??OABG?C?O?B?'
(ttp865
a(S'I?CD???OAA??G?_`C_'
(ttp866
a(S'I???_@?Q?A?AOC_HS?'
(ttp867
a(S'I?GA?C?_OG?ACCa@OO'
(ttp868
a(S'I???_A_?OO_O?a?@@O'
(ttp869
a(S'I?G@?@?gOA?AOCO?O_'
(ttp870
a(S'IA??OG?CACC?GOa@@O'
(ttp871
a(S'I?O?O@?_BAA?G?T?B?'
(ttp872
a(S'I?O?O@?__g??WCT?A_'
(ttp873
a(S'IA??_@?_@C@?S?aWCG'
(ttp874
a(S'IA??OC?GAC??GAOSK?'
(ttp875
a(S'IAO?O@?_?AA?W?T?@_'
(ttp876
a(S'IA?@?@@?A?@?Gcc@Co'
(ttp877
a(S'I?C?_G?P?GG?CC`_GO'
(ttp878
a(S'IAC?_G?O?CC@C?`GG?'
(ttp879
a(S'IA_?_??O?A@O?C_@CO'
(ttp880
a(S'I?GG_@?OAAC@??O?C_'
(ttp881
a(S'I?G??E?__C@@OGO?C_'
(ttp882
a(S'I?GC?_?CE???O_PC?g'
(ttp883
a(S'I?C@?E?G??GC???`H?'
(ttp884
a(S'I?OQ?_???OA@?__H@O'
(ttp885
a(S'I?G@?_@?A?@CGCA@?o'
(ttp886
a(S'I?CG?CA_?@A@??aH@O'
(ttp887
a(S'I?C??GG?DC??S?_gCG'
(ttp888
a(S'I?Ca??AOC?@?GAOSCG'
(ttp889
a(S'IAO?_@?_?C@?CABO?W'
(ttp890
a(S'IAC??A?O?B?P??_H?O'
(ttp891
a(S'I???O?@?AG?CH?_@IO'
(ttp892
a(S'I?C??G@P_?@AGAOSCG'
(ttp893
a(S'I????EA@?@G?W?OPg_'
(ttp894
a(S'I??C?W_OO?@?SGcGGG'
(ttp895
a(S'IO?O?A?O?ogGCA?O@O'
(ttp896
a(S'I?GG?C?CAA@P?O_O?o'
(ttp897
a(S'I?GA?G?Q@A?@C?P_OG'
(ttp898
a(S'IA?C?A?C?_GCCa?C@O'
(ttp899
a(S'I??A?C?_OGAACCQCOG'
(ttp900
a(S'IA??OC?GAF??GC?D@_'
(ttp901
a(S'I?G?O@?WQ?`H@C?_?o'
(ttp902
a(S'IC??O@@?@WCQ?Aao?g'
(ttp903
a(S'IA??_C?O?Q?CC?_WO?'
(ttp904
a(S'IC?A?@A??cCH?A_PAO'
(ttp905
a(S'IC_?O@??@Q_?OCcg@G'
(ttp906
a(S'I?G??G?S@C_?CC`Gg?'
(ttp907
a(S'I????A?O@c@c?AOOI?'
(ttp908
a(S'IA??O??G@@@OO??WGG'
(ttp909
a(S'IC?__@?_@c_?O?OO@_'
(ttp910
a(S'I?CC?SOAA@??GAOcGG'
(ttp911
a(S'IP??@A?_CO?AO_OC?g'
(ttp912
a(S'I?Co???G?OC?W?O_@_'
(ttp913
a(S'IGC????o@Og?G?dO@?'
(ttp914
a(S'I????WOOO?@?SG_WgG'
(ttp915
a(S'IG??@??_COC?HG_P?o'
(ttp916
a(S'I?CC?B?_C_??Ci?CCO'
(ttp917
a(S'IGG????o@T_?CC?G@G'
(ttp918
a(S'I@??@A?_CO??P_Oc?g'
(ttp919
a(S'I?G?@C?_@U_?CC?G@G'
(ttp920
a(S'I????E?p??g?G?OPk?'
(ttp921
a(S'ICG@?G??CCG?C?OCIG'
(ttp922
a(S'I?G??@?P?WCC?AQ_@G'
(ttp923
a(S'I?G@?HA?C@G?G?QCo?'
(ttp924
a(S'I???OD?_OGAAO?e?@?'
(ttp925
a(S'IAG?_G?o?AC?C?O?T?'
(ttp926
a(S'IAG?O@?W?A?PO?O?C_'
(ttp927
a(S'I?C?OA?H?@?H?I?C??'
(ttp928
a(S'I?O??A?C_C@AO?PO?g'
(ttp929
a(S'I???_C?Q?a?CCA?PQ?'
(ttp930
a(S'I?G@?G@@??g?C?OCKG'
(ttp931
a(S'I?O??@?D?QG?GA@c@G'
(ttp932
a(S'I?C??A?OOA_P??_H?O'
(ttp933
a(S'I????C?I@CAG??OHF?'
(ttp934
a(S'IA_??@?G@AAO?C?@CO'
(ttp935
a(S'I???O_?a?C?@G__@CO'
(ttp936
a(S'I?C?OC?X?A?aGC?@C_'
(ttp937
a(S'I?G@?@_?_?GS??_PAO'
(ttp938
a(S'I?O??@?`?W??WCR_?g'
(ttp939
a(S'I?OC?G?_O?DAG?QOoG'
(ttp940
a(S'I@?Q_??C@?CGC?_`O?'
(((I9
I1
tg5
tttp941
a(S'I?O?OG@HD?@?G?A@E_'
(ttp942
a(S'IAO?OA?G?CAGO?O@D_'
(ttp943
a(S'I?G??B?COACQO?O?@_'
(ttp944
a(S'I?O?_@?D?QC@?A@g?G'
(ttp945
a(S'I?_?OC?GASA??Ga@DO'
(ttp946
a(S'I?O?O@?C@`?I??CW?G'
(ttp947
a(S'I?C??A?GCS?_GW?@Go'
(ttp948
a(S'I?C?_C?U?`AG?A?@R?'
(ttp949
a(S'I??@OA?P?`?_CC?GI?'
(ttp950
a(S'I?O?_@?CCC?E??QC?g'
(ttp951
a(S'I?O?_@?D?AAAO?P?@_'
(ttp952
a(S'I@?A?@AG@?@?CQAO?W'
(ttp953
a(S'I?O?_G?_O?c?G?O@H?'
(ttp954
a(S'I?CO?G?O?a@@G??DA_'
(ttp955
a(S'I?_A?C?W_g?@??O@U?'
(ttp956
a(S'IA??OG?o?aC?C?S?DG'
(ttp957
a(S'ICC?_C?@??GI??_P?O'
(ttp958
a(S'I@O??@?SAC??C?bGAG'
(ttp959
a(S'I?G?O??O_?cP?A_@c?'
(ttp960
a(S'IG??OA?gE?@?CS?CAO'
(ttp961
a(S'IA?@?@?cAC@?Gc`??O'
(ttp962
a(S'IA???A?W@A@P??OGC?'
(ttp963
a(S'I???O@??_?G_@C?cCG'
(ttp964
a(S'I???_E@?_G?CO?O@Q_'
(ttp965
a(S'IS???@@?@GGAGAQSAG'
(ttp966
a(S'I??A?S_?S?@?S?aGQG'
(ttp967
a(S'I???P?_@@AG?S?_g@G'
(ttp968
a(S'IA??O??_@AA?S?cGD?'
(ttp969
a(S'IAO??@?_?C@?W?RO?g'
(ttp970
a(S'I?c????C@?aO?CRC?G'
(ttp971
a(S'I?C?OOGA?@CQG?_@?o'
(ttp972
a(S'I???O@_@?@A@Cg_G?O'
(ttp973
a(S'I?CC_??C@A?ACA`??O'
(ttp974
a(S'I?C?_@?O_?cO??oGD?'
(ttp975
a(S'I?O?OI@A??I?DG@@HO'
(ttp976
a(S'I?S??G@@??_?S?hGGG'
(ttp977
a(S'I?G?OC?CQAI?OCO?A?'
(ttp978
a(S'I?Co???G?O@@O?Oc?g'
(ttp979
a(S'I?G?OG?o?_@??K?@?O'
(ttp980
a(S'I?CG?@?C@@AGW??@@_'
(ttp981
a(S'I?CC_??C?Q?CO?Oc?g'
(ttp982
a(S'I?C?_@?OB@_H??_O?_'
(ttp983
a(S'I?G?OA?_`CG?O?O_D?'
(ttp984
a(S'I@?A?C?COO_?GA?c@G'
(ttp985
a(S'I?G??A?_`C@@O?O_C_'
(ttp986
a(S'I???_C?I@A?CC?OWQ?'
(ttp987
a(S'I?GA?C?_O?_?CCOCWG'
(ttp988
a(S'I?G??G?D@@a?Oc?@@_'
(ttp989
a(S'I?C??A?OOCCI??_P?_'
(ttp990
a(S'I?O?O@?CAAACOGk?@_'
(ttp991
a(S'I?O?O@?_AA_?G?TC@G'
(ttp992
a(S'I?CA?O?G@CCD?_Og?G'
(ttp993
a(S'I?O??@?CAC@COGiO?g'
(ttp994
a(S'I?_??C?H?G_@G?ODK_'
(ttp995
a(S'I?G??G?OBD??KC?@i?'
(ttp996
a(S'I???OA@?OG?OGI?@GO'
(ttp997
a(S'I?G????K@?CL??O?Q_'
(ttp998
a(S'I@_??@?O@O??C?f_?G'
(ttp999
a(S'I?G?o????O@D?i???O'
(ttp1000
a(S'I@???G?OB?A?C?o?]?'
(ttp1001
a(S'I?c????C@?DG??do?G'
(ttp1002
a(S'I?WG?G?C@@G?C??OGG'
(ttp1003
a(S'I?CC?a?OE??GC?OKCG'
(ttp1004
a(S'I?C??B?WBD_G?C?O?_'
(ttp1005
a(S'I????IO?P?g?CC_@gO'
(ttp1006
a(S'I?C??A?_@A?O?O_@B?'
(ttp1007
a(S'I??A?KAA?@A?CCSCGG'
(ttp1008
a(S'I??A?@@R??IAC_`@@O'
(ttp1009
a(S'IAG????C??GC?c_@OO'
(ttp1010
a(S'I?G????K@?`KOC??O_'
(ttp1011
a(S'I?C???A?A@?OGcOC?G'
(ttp1012
a(S'I????@?@??GG?GWSCG'
(ttp1013
a(S'IOG?@C?_AQ_@??OC@G'
(ttp1014
a(S'I?O@_g@_?S@?C??oKG'
(ttp1015
a(S'I?Go?G?O@S_?CC?G@G'
(ttp1016
a(S'I?__OC?g?s_??S?C@?'
(ttp1017
a(S'I??@?E_@A@G?G?OPI?'
(ttp1018
a(S'I?C@?GAG@AA@?QC@@?'
(ttp1019
a(S'I?G?OG@OOC??W?Q?A_'
(ttp1020
a(S'I?G@?@@@?OI?Ci@?@O'
(ttp1021
a(S'I??@?G?OOY?@GG_@O_'
(ttp1022
a(S'IA?C?G?C?O@?OC`g?W'
(ttp1023
a(S'I?G@?@?CQ?DH??_OA_'
(ttp1024
a(S'I?_@@a?CCO??GA?DG?'
(((I9
I2
tg5
tttp1025
a(S'I???_??CPGCI??_PO_'
(ttp1026
a(S'I???OG_PA`??CC_@IO'
(ttp1027
a(S'I?O?O@?COcG?GAACB?'
(ttp1028
a(S'I?O?O@?_a@A@??SCAG'
(ttp1029
a(S'I?O?_g?CCB??CA?O?W'
(ttp1030
a(S'I?_@?D?gOC??CCa?a?'
(ttp1031
a(S'I?CA?_G?PGI?C?_@PO'
(ttp1032
a(S'I@?G?A?CA`??P_OC@_'
(ttp1033
a(S'IO_??OA?@@@?GC_`Go'
(ttp1034
a(S'I???OA?C_G@OGK@??o'
(ttp1035
a(S'IAG?O@?O?C?GGE?CC?'
(ttp1036
a(S'I????@?O_gC@?A_@U?'
(ttp1037
a(S'I?C??G?XC?KAG?Q@D?'
(ttp1038
a(S'IA?A?D?g@@??C?a?P?'
(ttp1039
a(S'I?G@?G?o_@@A?C_@o?'
(ttp1040
a(S'IA??OI?OAA@???SSCG'
(ttp1041
a(S'I?C@?W@H??@?GI?DK?'
(ttp1042
a(S'I?C??CO?_`G?W?OPA_'
(ttp1043
a(S'I?C??G?W`CG?G?OPE?'
(ttp1044
a(S'I?G??@G@??`@O?PC?g'
(ttp1045
a(S'I???_@_?OSGAOCQC?g'
(ttp1046
a(S'I?CD?G@__?AAE?c@CO'
(ttp1047
a(S'I??@?KAI?@G?C?SOGG'
(ttp1048
a(S'I??C_G_OS?@?WGA@O_'
(ttp1049
a(S'I?G?OA?O_CCB??O?C_'
(ttp1050
a(S'IAG?OG?W?CK?C?O?L?'
(ttp1051
a(S'IA_?_@?O?ACO??_@D?'
(ttp1052
a(S'I?O__??G?O`D?C?G?o'
(ttp1053
a(S'I???_@?D?WCD?AAc?G'
(ttp1054
a(S'I?C??E?pA?a@??O@K?'
(ttp1055
a(S'I?C??G?h@A_?CC_@CO'
(ttp1056
a(S'I????A?GOS@a?c?G?O'
(ttp1057
a(S'I?GK?C?C@B??DA?G@G'
(ttp1058
a(S'I?G@?@AOC@?WGA?@@_'
(ttp1059
a(S'I?CO?@?O?aC@G??@A_'
(ttp1060
a(S'I?CA_??C@?EG??P?B?'
(ttp1061
a(S'I?O@_A?_AA?@C?O_S?'
(ttp1062
a(S'I?GA?G?OOG?@CGQCOG'
(ttp1063
a(S'IA??O@?OAC??Gc`@?o'
(ttp1064
a(S'IA_?_@?O?A?C??_POO'
(ttp1065
a(S'IB??O@?S??CG??dG?G'
(ttp1066
a(S'I???_@?WCGCO?GQ?C_'
(ttp1067
a(S'I?_@?A?C@a?O??P?B?'
(ttp1068
a(S'I???_@?G?U?EAC?G?O'
(ttp1069
a(S'I?O?_D?CADG?C?a?B?'
(ttp1070
a(S'I????A?D?OaKAA?C@?'
(ttp1071
a(S'I?G?_@?`@AK?C?O?F?'
(ttp1072
a(S'I?C??G?OOc_?KE?CG?'
(ttp1073
a(S'I???O?AA?@AOGa?@@O'
(ttp1074
a(S'I@??_C?cA?_?G?PCW?'
(ttp1075
a(S'IG??OG?o?`_@@?_PAO'
(ttp1076
a(S'IO?O?g?O?QA@??_H@O'
(ttp1077
a(S'I?O?_@???Q?@H??_C_'
(ttp1078
a(S'I@??OO?Oa?_CGAScCG'
(ttp1079
a(S'I?C??CAGAGCS??_@H?'
(ttp1080
a(S'I????CAGAG@S?C_@GO'
(ttp1081
a(S'I???OCAI?@@OW?OOG_'
(ttp1082
a(S'I???_COQ?`?AC?OGH?'
(ttp1083
a(S'I????@?E?C@AO_`W?W'
(ttp1084
a(S'I???_??O_G@Q?C_HCO'
(ttp1085
a(S'IAO??A?o?A@?C?SWCG'
(ttp1086
a(S'I?GK???C??@?Go?C?_'
(ttp1087
a(S'IB???@?G??AG@Q?@?O'
(ttp1088
a(S'IB??O@????AGO?SCCg'
(ttp1089
a(S'I?_??@?O@AAC??_@R?'
(ttp1090
a(S'I?O?_G?OOO_?C??WGG'
(ttp1091
a(S'IP???A?KD??CO_OGA_'
(ttp1092
a(S'IA?@?@?W_@GOGC?PA_'
(ttp1093
a(S'I???O@?E?CAAO_`G@O'
(ttp1094
a(S'I?O?_??__?`@O?`@O_'
(ttp1095
a(S'IAG??C?O?@AOCA?@H?'
(ttp1096
a(S'IB??OH?O??G?G?UCCG'
(ttp1097
a(S'I????C?Y?__OCA?PK?'
(ttp1098
a(S'I?_??C?G@c@G??OOE?'
(ttp1099
a(S'I?G?OC??QC??WCO_G_'
(ttp1100
a(S'I?C?_C?OO?II?C?@O?'
(ttp1101
a(S'I???OA?O@c?c?A?PI?'
(ttp1102
a(S'IH?????oCO??GGd@?o'
(ttp1103
a(S'I?G?OA?C@?KK??O?B?'
(ttp1104
a(S'IA???@@G_?GSOC_HAO'
(ttp1105
a(S'I?C_?A?_@?K?C?o?F?'
(ttp1106
a(S'IA??_@?_@EG?C?_@DO'
(ttp1107
a(S'I?CA?C?i@c?@??O@M?'
(ttp1108
a(S'I?CG?@?C?`?GGE???O'
(ttp1109
a(S'I@??_@B?A??CDa?C?W'
(ttp1110
a(S'I@?C?@?qA?_?G_`@OO'
(ttp1111
a(S'I?OC_G@AO?@?WGA@O_'
(ttp1112
a(S'I?O?_A?_AA@?OOOoo?'
(ttp1113
a(S'I?G?O@?O@G@I?ADO?G'
(ttp1114
a(S'I?C@?A?C?WCW?O?g@G'
(ttp1115
a(S'I?G?OA?CO?GIB??C@?'
(ttp1116
a(S'I?C?_@@?OC?AA?a??o'
(ttp1117
a(S'ICC??C??_Ca?GE?D?_'
(ttp1118
a(S'I?Ga???GB@@?C?OSAG'
(ttp1119
a(S'IAO?O@?S?A?PG?`??_'
(ttp1120
a(S'IA??O@??@AAOW??@D_'
(ttp1121
a(S'IA???@?K?`?G@E???O'
(ttp1122
a(S'IA??O@?W@A?CC?CW?G'
(ttp1123
a(S'I?C?OC?WOCAG?A?@B?'
(ttp1124
a(S'IA??O@GOA?A@?COKCG'
(ttp1125
a(S'I?C?`??O?_c@???@?_'
(ttp1126
a(S'I?C`???C@__CG??@@_'
(ttp1127
a(S'I@???C?H?O_KCA?K@G'
(ttp1128
a(S'I?C?_C?_DCG?G?P_G?'
(ttp1129
a(S'I???OA?X?gC@?AO@M?'
(ttp1130
a(S'I?_?OA?O@cAC??O@J?'
(ttp1131
a(S'IB???E?_?S??W?P@G_'
(ttp1132
a(S'IA_??A?G?P?O?c?@?O'
(ttp1133
a(S'IA??OG?WACC?G?O@L?'
(ttp1134
a(S'IA??OC?O?P?GC?cW?G'
(ttp1135
a(S'I?_?O@?GAaA?PG?@DO'
(ttp1136
a(S'I?C?OA?`?`?@Q?_HIO'
(ttp1137
a(S'IA_?O@?G?AA?P?_HDO'
(ttp1138
a(S'I?C?_C?W_G?CCG?WO?'
(ttp1139
a(S'IB?A?C?G?C??G?ODK_'
(ttp1140
a(S'IA_?OG?C?CC?GOa@@O'
(ttp1141
a(S'IAO@_@?_?C@?C?AWCG'
(ttp1142
a(S'I???O@@@??a_Ga?CC?'
(ttp1143
a(S'IA???G?G@A@@G??DS_'
(ttp1144
a(S'IA??_@?C@@?X??_@?o'
(ttp1145
a(S'I?CG?@?G@@@GO??W?G'
(ttp1146
a(S'I?C??@?_OG?AGCa?OO'
(ttp1147
a(S'IG??OC?o?`_OIC?PA_'
(ttp1148
a(S'I?OOC?GaC?@?GAOSAG'
(ttp1149
a(S'IAO?_??_?AA@O?P@O_'
(ttp1150
a(S'I?G??C?__c@@OGO?C_'
(ttp1151
a(S'IAG?O??W?@?OO?O?H_'
(ttp1152
a(S'I@??`@?GD??GP?OGA_'
(ttp1153
a(S'I?Ca?C?K@c_C?C?O?_'
(ttp1154
a(S'I?CC?AA_?OC@Ca?cCG'
(ttp1155
a(S'I?C@@G@?B?@?C?_oGG'
(ttp1156
a(S'I?CA?G?W_cC@??O@E?'
(ttp1157
a(S'I?C@@A@?E?@?GA?DI?'
(ttp1158
a(S'I?_??C?H??g?W?OPk?'
(ttp1159
a(S'I????C?D??a_GCPCG_'
(ttp1160
a(S'IA?@_??GA@??O?Q@P_'
(ttp1161
a(S'IG??OC@_OO_?IACc@G'
(ttp1162
a(S'IA??@@?_C?A?P__H@O'
(ttp1163
a(S'IG???G?W?t_?O?OO@_'
(ttp1164
a(S'I??@?A?COE?`??_HAO'
(ttp1165
a(S'I@OQ_??C@??GC?_`O?'
(((I9
I1
tg143
tttp1166
a(S'IOC?@A?_AOa?Oc?C@?'
(ttp1167
a(S'IB?@???C??AOCA`?GO'
(ttp1168
a(S'I??@@?_HA?K?C?qOB?'
(ttp1169
a(S'I?C@_GA?CH??W?Q@O_'
(ttp1170
a(S'I?C?_E?_OGAAO?O@X?'
(ttp1171
a(S'I?_?OA?O_CCA??_@D?'
(ttp1172
a(S'I@???AACE??CP_OC?g'
(ttp1173
a(S'I@_??@?O@_??G?Q?U?'
(ttp1174
a(S'I?O@OA??A?_?G?@PG_'
(ttp1175
a(S'I?C?o????_CE?a?O??'
(ttp1176
a(S'IA???@?G@?IGO??@T?'
(ttp1177
a(S'I?g??@??@?EC??Q?R?'
(ttp1178
a(S'I?O????C_S@@GA@c?g'
(ttp1179
a(S'I?G????_`C@@O?o_C_'
(ttp1180
a(S'IAg??????PAOCc?D_?'
(((I9
I0
tg5
tttp1181
a(S'I?Cg???G?_C?W?O@D_'
(ttp1182
a(S'I?Co???G?OC@??Oc?g'
(ttp1183
a(S'I?C??A?O_CC@?A_@E?'
(ttp1184
a(S'I?CA?A?O@A?C??_@B?'
(ttp1185
a(S'I?C??@?O_cC@?A_@E?'
(ttp1186
a(S'I?CC?@?O@@?GG?_@A_'
(ttp1187
a(S'I?C@@O???_A?O?OGA?'
(ttp1188
a(S'I?G?O@?O_gCC?AS?B?'
(ttp1189
a(S'I?G@?G?_PC??GCO@I?'
(ttp1190
a(S'I?c????C?__O?s?C?G'
(ttp1191
a(S'I?CA?@?G?a?C?C_@AO'
(ttp1192
a(S'IC?COA@?B???C_OKAG'
(ttp1193
a(S'I?O?OC@__?AOGG@`@_'
(ttp1194
a(S'I@?@?G?g_c??C??@EO'
(ttp1195
a(S'I@??_@AOC@?WO?OG?g'
(ttp1196
a(S'I?C??CA?AgCS??OOGG'
(ttp1197
a(S'IAG@?@?_?AA@O?OGS?'
(ttp1198
a(S'IAO??A?o?A?@C?SGCG'
(ttp1199
a(S'I?C??OOaO?BAGE?CGO'
(ttp1200
a(S'I?G?O??WOCCACA??H?'
(ttp1201
a(S'I?G?@@?OA__?Da?O@O'
(ttp1202
a(S'I???_?_?OS@AO?QS?g'
(ttp1203
a(S'I?C?_E??QAG?OCO?A?'
(ttp1204
a(S'I?CG?AAO?@@GCE?W?W'
(ttp1205
a(S'I?O__??_?P@AOC?O?g'
(ttp1206
a(S'I?_??K?C?cC??GPOGG'
(ttp1207
a(S'I?_?OS@?Q?A?D?a@AO'
(ttp1208
a(S'I?G?OC?P?A@a?C_GC?'
(ttp1209
a(S'I?O?O@O?O__GO?_G@?'
(ttp1210
a(S'I??@_G_?OO_?W?Q@P_'
(ttp1211
a(S'I???_@?Q?C@AGAQSCG'
(ttp1212
a(S'I?G@_@?_aC??OCO?E?'
(ttp1213
a(S'I?C??@?G_GAC?K?GOO'
(ttp1214
a(S'I????AO?_@CaC?OK@G'
(ttp1215
a(S'I?C??@O?OaAAO?_H@O'
(ttp1216
a(S'I???_@?P?WC@CAB_?G'
(ttp1217
a(S'I?_@?@?e?C@AGc`??O'
(ttp1218
a(S'I?G?OC?oOCA@??OGI?'
(ttp1219
a(S'I?_@???c@c??G_P?B?'
(ttp1220
a(S'I?GA?C@_P?@A@?OOIG'
(ttp1221
a(S'I?G@?G@GQC@?Cc?_AO'
(ttp1222
a(S'I?CC?K?aO?DA??aOOG'
(ttp1223
a(S'I?C__C@G@O_S?A?G@?'
(ttp1224
a(S'I??C?K__OODA??aOOG'
(ttp1225
a(S'I?CO_????OGA?c_@?O'
(ttp1226
a(S'I?Cg???G?_C@CA_@CO'
(ttp1227
a(S'I?Cg???C?_@C?A_O?O'
(ttp1228
a(S'I?C??@?G_?aOGA?DD?'
(ttp1229
a(S'I?_?OE?_?SC?GG@@H?'
(ttp1230
a(S'I??@?AA_CH??G?ODW_'
(ttp1231
a(S'I?C?_??_PG?I??_POO'
(ttp1232
a(S'IC??OCAA?ODX?A_o?g'
(ttp1233
a(S'IOG??C?C?PGIGA?O@O'
(ttp1234
a(S'I?G??A?C@?KK??O?R?'
(ttp1235
a(S'I?G?OA?C@?_KO?O?@_'
(ttp1236
a(S'IAG?O??O?@?OW?O?H_'
(ttp1237
a(S'I?C?_G??@A??OS_hO?'
(ttp1238
a(S'I?O??C?GAB@?C?CWAG'
(ttp1239
a(S'I???O??GO?GG@C_@aO'
(ttp1240
a(S'I??A?K_H@@??C?OOIG'
(ttp1241
a(S'I?CA?OGP??@AGAOSCG'
(ttp1242
a(S'I?O?_@?`?P?@O?Y_?g'
(ttp1243
a(S'I?O?OA?_AA_?CCCCCG'
(ttp1244
a(S'I?G@_@?_OG?AO?Q?P?'
(ttp1245
a(S'I????A?GCS?_CW?GGO'
(ttp1246
a(S'I@?A?K@E??_?GOa@OO'
(ttp1247
a(S'IG??OC?g?`@PAG?SA_'
(ttp1248
a(S'I?C@?A?W_@?O?A?@B?'
(ttp1249
a(S'I?C??C?cOEA?GE?c??'
(ttp1250
a(S'I?G??@?__Cc?O?oGD?'
(ttp1251
a(S'I@???A@P?o?IO?OGC_'
(ttp1252
a(S'I?GC?CAO?P?GCA?G@G'
(ttp1253
a(S'I?G??@?O_?c_??oGT?'
(ttp1254
a(S'I???_@AA?C@CO?QS?g'
(ttp1255
a(S'I?G??A?C@?`K?E??OO'
(ttp1256
a(S'IA?Q?@?O_CA@?COKAG'
(ttp1257
a(S'I????@?P?PA_CEA_?W'
(ttp1258
a(S'I?G??G?T@?_?CC`Gg?'
(ttp1259
a(S'I?K__??_B@C?C?O?B?'
(ttp1260
a(S'I?O??@?o_`@@G?C@A_'
(ttp1261
a(S'I??A@A_@@AG?C?OSAG'
(ttp1262
a(S'I?O??@?COc@@GAACA_'
(ttp1263
a(S'I?O?_??Ca?`D?C?G?W'
(ttp1264
a(S'I?O????CaC@@G?Pc?g'
(ttp1265
a(S'I??@_G@__?EA??P@p?'
(ttp1266
a(S'IA??OA?G@CAGO?O@D_'
(ttp1267
a(S'IA???C?O?`AOCA?@H?'
(ttp1268
a(S'IC?__C?_@S_?GC?@@_'
(ttp1269
a(S'IC??_@?`C?K?CGQC@G'
(ttp1270
a(S'IA?@@??CA?A@?__H@O'
(ttp1271
a(S'I?G?O??_`CG?O?o_D?'
(ttp1272
a(S'I????@?COgCP?AQCAG'
(ttp1273
a(S'I??@?A?W_S?a?COGC?'
(ttp1274
a(S'I??B?_G?S?@?GCk@?o'
(ttp1275
a(S'I?_?_@?CBE_??S?O?W'
(ttp1276
a(S'I?_??C?GASC??OOoGG'
(ttp1277
a(S'IC?@?E?GCS?A?A?@G?'
(ttp1278
a(S'I??@???C@aAo?A@@B?'
(ttp1279
a(S'I?WA?@?OOAG?CG?OOG'
(ttp1280
a(S'I???OC@?Og?AC?SKGG'
(ttp1281
a(S'IAG?OK@???K?COS?HG'
(ttp1282
a(S'I?G@?@?_aCA?OCO?E?'
(ttp1283
a(S'I?c??A?X?ACA??O@D?'
(ttp1284
a(S'I?GA__G?PGG?C??@PO'
(ttp1285
a(S'I?CC_??G@A?ACA_@CO'
(ttp1286
a(S'IAO@O@?_?AI?C?c?D?'
(ttp1287
a(S'I???OC?WOGAP??OGI?'
(ttp1288
a(S'I???_C?oOGG?G?OPY?'
(ttp1289
a(S'I????@?E?SCGO?`o?g'
(ttp1290
a(S'I??@?A?_AGA?OOO`X?'
(ttp1291
a(S'I???_??D?G@@?GRC?g'
(ttp1292
a(S'I???_@?P?WG?OCQgCG'
(ttp1293
a(S'I???O@GA@?_SGC_@?o'
(ttp1294
a(S'I?C__??C@@?@O?o?A_'
(ttp1295
a(S'I@?O?@@?A_??PGQC?g'
(ttp1296
a(S'I?G????_`C_?WCO@C_'
(ttp1297
a(S'I???_@?O_GCQ??oGD?'
(ttp1298
a(S'I?C?_C?GCCCc??OGI?'
(ttp1299
a(S'I???OA@?OC?AA?_HGO'
(ttp1300
a(S'I?O@_@?CAD??C?AWAG'
(ttp1301
a(S'I?g??@?C?@CO??QCBG'
(ttp1302
a(S'I?o??@?C@P?O??ao?G'
(ttp1303
a(S'I??@?A?C@a?o?AP?B?'
(ttp1304
a(S'I?G?OC?GQC??OCO_G_'
(ttp1305
a(S'IA??O@AG??BP?s?K?o'
(ttp1306
a(S'IA??OAAC??BD@c?K?o'
(ttp1307
a(S'I?O?_@?_BA?@G??`S?'
(ttp1308
a(S'I?C@?AA?AGCK??OOOG'
(ttp1309
a(S'I?_??A?O_C@A?C_@CO'
(ttp1310
a(S'I?C?_C?_OC?AO?_@H?'
(ttp1311
a(S'I@?D?_G?Q?A?CAc@_O'
(ttp1312
a(S'I?CG?@?G@@?GW??@@_'
(ttp1313
a(S'I?C__??O@__C??O?@_'
(ttp1314
a(S'I?C?_C??@A?@GQ?`O?'
(ttp1315
a(S'I@??_@?_`?_?LE@CE?'
(ttp1316
a(S'I???O@??CG?OGg_@Co'
(ttp1317
a(S'I????@?_@A?_?OSo?G'
(ttp1318
a(S'I???OA?O@cAc?AO@J?'
(ttp1319
a(S'I???O@AA?@AO?CQK?G'
(ttp1320
a(S'I????A?C_G@OCK@G?W'
(ttp1321
a(S'I?CA_??G@?EG??O@F?'
(ttp1322
a(S'I?CA_??C?P?G?C__?O'
(ttp1323
a(S'IA??OC?GACG?G?OSK?'
(ttp1324
a(S'I?G@?C?G_C@CCC?g_?'
(ttp1325
a(S'I?C@?A?OOCAI?C?@?_'
(ttp1326
a(S'I?_?_@?OAV???C?o?W'
(ttp1327
a(S'I?O?_@?C@P?X??__?_'
(ttp1328
a(S'I???OAOA?_CACo?G@?'
(ttp1329
a(S'I?C?_??O_GCQ??_HD?'
(ttp1330
a(S'I??@?A?C@a@o?A@OA?'
(ttp1331
a(S'I???O@AA?@?O?a?S?G'
(ttp1332
a(S'I?C??C?WOGAG?A?@R?'
(ttp1333
a(S'I???_C@COG?OO?a@A_'
(ttp1334
a(S'I?O?OC?_CcG?C?a?E?'
(ttp1335
a(S'I???O@?P?`A_CEA?AO'
(ttp1336
a(S'I?_O?OA?@C@?GC_`Go'
(ttp1337
a(S'I?O?_@?_OC@?CAAo?W'
(ttp1338
a(S'I?G?OC?__C?B??OCCG'
(ttp1339
a(S'I@??OC?`Aa??C?_@EO'
(ttp1340
a(S'I?O?`@@??SGGGG?o?o'
(ttp1341
a(S'I?O?`??CB?_?CCAG@G'
(ttp1342
a(S'I?O?_@@PC?GAC?QGCG'
(ttp1343
a(S'I?O@_@?_AA?@G??`S?'
(ttp1344
a(S'I?_?O@?GBAA?@?_`DO'
(ttp1345
a(S'I?C?_??O_G?E?A_POO'
(ttp1346
a(S'I?G?OC?P?@?H??_Ha?'
(ttp1347
a(S'I?C_OA?O@?_D??_G??'
(ttp1348
a(S'I?O?_G?`?P@@O?g_G?'
(ttp1349
a(S'I?C?_BAP?@?_?_?O?o'
(ttp1350
a(S'I?C??C?OOa@Q?A?O?G'
(ttp1351
a(S'I@?G?A?CE??OCq?C?W'
(ttp1352
a(S'I@?o?C?GCO?OCA?g?W'
(ttp1353
a(S'I?G@?@?_Oa_@O?O?O_'
(ttp1354
a(S'I?G??GO?S?H?OCa@aO'
(ttp1355
a(S'I?C@???G?ODE??AW?G'
(ttp1356
a(S'I?G?O??K@?`KOC???_'
(ttp1357
a(S'I?G?OC?C@OGC???o?G'
(ttp1358
a(S'I?G?O??K@?CM??O?@_'
(ttp1359
a(S'I?G?O??GC@?ICA?C?O'
(ttp1360
a(S'I?C????CO?_O?AQS?G'
(ttp1361
a(S'I?G??@?_OG?ACCUC?G'
(ttp1362
a(S'IAG??@?O?A?@O?o?S_'
(ttp1363
a(S'I?C@?G?WAe?@??O@E?'
(ttp1364
a(S'I?O?OC?gOQ@Q?C?o?g'
(ttp1365
a(S'I?G?OA@OOC?GO?OGA_'
(ttp1366
a(S'I?G?_C?OO?HI?C?@O?'
(ttp1367
a(S'I?O?OO@CA?E?C_DGAG'
(ttp1368
a(S'I?G?OG?OAeC?C?O?F?'
(ttp1369
a(S'I???_C_?A@AOO?O@J?'
(ttp1370
a(S'I?K@?C?G_@?Q??OO?_'
(ttp1371
a(S'IB???@?O??@CGAUC?G'
(ttp1372
a(S'I?O?OA???Q?@D?@g?G'
(ttp1373
a(S'I?C?_C?_OAI?OCO?A?'
(ttp1374
a(S'I?CC_??C@A?A??PC?g'
(ttp1375
a(S'I???OAAP?@?_O?_HH?'
(ttp1376
a(S'I???O@?E?cCAO_@G@G'
(ttp1377
a(S'I?G?OE?COAGAOCO??_'
(ttp1378
a(S'I??A?A_C@ECD??ooA_'
(ttp1379
a(S'I???O??D?GA@?G`GGO'
(ttp1380
a(S'IC???@A?@AAAGECD@_'
(ttp1381
a(S'I?G??C?__CA@OGP@__'
(ttp1382
a(S'I?O??@?_P?a@C?AGOG'
(ttp1383
a(S'I??@??AE?C?CG__P?o'
(ttp1384
a(S'II??O??O?ODT?A_o?g'
(ttp1385
a(S'I?G?_@?COCCIO?O?@_'
(ttp1386
a(S'I?O?_??__Og?O?`@P?'
(ttp1387
a(S'I?GA?H?O?O@??G_O?O'
(ttp1388
a(S'I?O??A?C@?IC???`X?'
(ttp1389
a(S'I?C?_@?C?`?I?E???O'
(ttp1390
a(S'IAG?O??C?@?OGE??GO'
(ttp1391
a(S'I?O??A?oAa??C?C@F?'
(ttp1392
a(S'I?CO?A?__OHOOK?o?W'
(ttp1393
a(S'I?O??@?`?Og?G?RC@G'
(ttp1394
a(S'I?KG?C?O?`?H??O??_'
(ttp1395
a(S'I?G@???CQCI?OCO?I?'
(ttp1396
a(S'I?C@?K???OAB??@G?G'
(ttp1397
a(S'I???O??G_?aSAA?@@O'
(ttp1398
a(S'I?G??C?OOC@B??_@G_'
(ttp1399
a(S'I?C?O??G_?a_@C?KC?'
(ttp1400
a(S'I?C?_G?OAP_?O__O@?'
(ttp1401
a(S'IA?@?G?C?S@?O_`W?G'
(ttp1402
a(S'I?C?_AA?A@?O?c?@?O'
(ttp1403
a(S'I@??O@?O_@?QG?_@?o'
(ttp1404
a(S'I?G@?D???O@D???g?G'
(ttp1405
a(S'I?CG?@???_GGGS???O'
(ttp1406
a(S'I?GAO??C??AA?o?C@?'
(ttp1407
a(S'I?c??C?G?AAO?COcC?'
(ttp1408
a(S'I?C?_C?_AA??S?_oC?'
(ttp1409
a(S'I?O?O@?gOSAI?C?c@_'
(ttp1410
a(S'I?C??C?_OGAAO?_@X?'
(ttp1411
a(S'I?C?_OAOE??CGA?@?O'
(ttp1412
a(S'I?C@?I???_CC??OOA?'
(ttp1413
a(S'IC?A?_@?@GAGCA_`PO'
(ttp1414
a(S'I?S@?I@@??I?CG@@H?'
(ttp1415
a(S'I??@_GA?CX??W?Q@O_'
(ttp1416
a(S'I?C?OC?_OCAAO?_@H?'
(ttp1417
a(S'I?CA?AA_?Q@?OS?o?W'
(ttp1418
a(S'I?O?_@?_AA_?O?`@P?'
(ttp1419
a(S'I?C?OA?_OC?AGC_@GO'
(ttp1420
a(S'IA??OC@__?AOGG@D@_'
(ttp1421
a(S'I?G?OA?CCACCO?O?A_'
(ttp1422
a(S'I?Co???G?OC@CA__?O'
(ttp1423
a(S'I?O??A?OA?I?C?@@Z?'
(ttp1424
a(S'IAC??A?K?A?C@E?C??'
(ttp1425
a(S'I?C??A?O@A?R??oGC?'
(ttp1426
a(S'I?G??A?OCA@QO?O?C_'
(ttp1427
a(S'I?CC?W?p??a?C?QCCG'
(ttp1428
a(S'I??C?@?q?OgOG_`@@O'
(ttp1429
a(S'I??C?@?qC?GAG_`@OO'
(ttp1430
a(S'I?CA@?@?`?@?GAOSAG'
(ttp1431
a(S'I?O?_G?c?OA??G_@@O'
(ttp1432
a(S'I?C@?A?o_PA@C??g?G'
(ttp1433
a(S'I?G??C?`?QG?GK?@CO'
(ttp1434
a(S'I?G@?GAAAC??CC_@KO'
(ttp1435
a(S'IC???@?CA?_OGCQC?G'
(ttp1436
a(S'I?C@?A?OOCAI??OG@?'
(ttp1437
a(S'IAG?O@???CCGW?O?D_'
(ttp1438
a(S'IAO?O@?W?A?CC?CW?G'
(ttp1439
a(S'I?O?OC?GA?I?C?A@F?'
(ttp1440
a(S'I?OO?@?C@?_@C?aG?G'
(ttp1441
a(S'I?G??@?P?G@AO?RO?g'
(ttp1442
a(S'I???OA?Q?C?AGc?@C_'
(ttp1443
a(S'I???O@Aa??H?WcDO?W'
(ttp1444
a(S'I???OO_?OOE@CIEG?W'
(ttp1445
a(S'I?OC?O?_O?EAG?Q@o_'
(ttp1446
a(S'I?G??@?_AAC?W?O_T?'
(ttp1447
a(S'I?CA?@GOA__@?COCCG'
(ttp1448
a(S'I?G?OI?`@A??OCO?E?'
(ttp1449
a(S'I?G?O??G?OGE?c???O'
(ttp1450
a(S'IA??@@?OA?A@@__H@O'
(ttp1451
a(S'IC??OA?CD?GQGa?C@?'
(ttp1452
a(S'I@???G?KCO??GYEC?O'
(ttp1453
a(S'I?C??OO?Q?E?WGQ@@_'
(ttp1454
a(S'IA??OAB??OG?La?SCO'
(ttp1455
a(S'I?G@?D???O@DG??_?_'
(ttp1456
a(S'I?C@?@?WO?`GG??O?_'
(ttp1457
a(S'I@?G?G?KCO??HQAC?O'
(ttp1458
a(S'IA??OA?O?`AOO?O@H_'
(ttp1459
a(S'I?G?OC?_PCG?G?O_H?'
(ttp1460
a(S'I?G?O??O?SG?CI`?HO'
(ttp1461
a(S'I@?A?C?H??_?G?ODK_'
(ttp1462
a(S'I?G?OA?C?OcKO?O?@_'
(ttp1463
a(S'I?O?_??C@?AF???@G_'
(ttp1464
a(S'IA??_@?O@A?P??_@C_'
(ttp1465
a(S'IC?A?@A?CCCGGG_P?o'
(ttp1466
a(S'I?_?OA?OOC?A??_PGO'
(ttp1467
a(S'I???O@?C_gCOO?`OA_'
(ttp1468
a(S'I?G??C?CQCG?OC_@I?'
(ttp1469
a(S'I?Cc???GOOC@CI?g?W'
(ttp1470
a(S'I?CA???G@?H??OQSAG'
(ttp1471
a(S'I?C@?A?WOA?AC??G@?'
(ttp1472
a(S'I??@?A?__WG?S?c_D?'
(ttp1473
a(S'I?OQ?@A??c@@?GAS?g'
(ttp1474
a(S'IA?o?@?OC?AOGA?D@_'
(ttp1475
a(S'I???_@__PECA??oo@_'
(ttp1476
a(S'I@??_@ACA??OOo_G@O'
(ttp1477
a(S'I?G?O@?O@a?T??O?A_'
(ttp1478
a(S'IA??OA?C@@?OO?_WG?'
(ttp1479
a(S'I?C??G@HC?C?WGQ@C_'
(ttp1480
a(S'IA?A?E?OA@??G?O@X?'
(ttp1481
a(S'IA?@?@?_?aA@O?P?O_'
(ttp1482
a(S'I?O?OC?CABA?G??`@_'
(ttp1483
a(S'I?O`?@?GE?@CC??WAG'
(ttp1484
a(S'I?C?`A@?E?@?Ca?CAO'
(ttp1485
a(S'I?C??@?CO?GO?c?c?G'
(ttp1486
a(S'I???O??GCA??XG?@c_'
(ttp1487
a(S'I????@?G_C?AGC?Dc_'
(ttp1488
a(S'I???_??Y?C?AO?Q@D_'
(ttp1489
a(S'I???OA???a?@F?@GAO'
(ttp1490
a(S'I???O??GCA?CDG?K_G'
(ttp1491
a(S'I?O??G?_CSA?W?P_g?'
(ttp1492
a(S'IA_?_@@???@?P?QSCg'
(ttp1493
a(S'I?O?OQ?pC?@?G?`@I_'
(ttp1494
a(S'I?O??@?COCg?S?aG@G'
(ttp1495
a(S'I?C?_A?O?WAK?I?@PO'
(ttp1496
a(S'I?_@?@?CAP??Gcc_?O'
(ttp1497
a(S'I???OA?D?gC@GQ?@IO'
(ttp1498
a(S'IA???AAO?@@GCE?WOW'
(ttp1499
a(S'I?_?_@?oC?@?@?QSEG'
(ttp1500
a(S'I?G??C?CQC@?OC_GI?'
(ttp1501
a(S'I????C?GCS?_GIA@CO'
(ttp1502
a(S'I?G?OG@@??g?O_OCCG'
(ttp1503
a(S'I?G?O@?__Cc?W?P?@_'
(ttp1504
a(S'I???OAG?P?_o??_P?o'
(ttp1505
a(S'I?O?_@?_BA??C?_oS?'
(ttp1506
a(S'IA??_G?OAC??CC`@GO'
(ttp1507
a(S'I?C@?G?GOG??KE?cW?'
(ttp1508
a(S'IA??O@?_@A??S?cWCG'
(ttp1509
a(S'IAG@?@?_?A?@O?oGS?'
(ttp1510
a(S'I?O??KA@?`@?C?OWGG'
(ttp1511
a(S'I??A?@?O_d??GC?Da_'
(ttp1512
a(S'I?G?@C@?CU??CI?G?W'
(ttp1513
a(S'I?_@???g@QA?CC?_C?'
(ttp1514
a(S'I?G??C?g_Cg?OCO@C?'
(ttp1515
a(S'I????@OO_`G?GC?Da_'
(ttp1516
a(S'I?G??G@OOC??W?Q@A_'
(ttp1517
a(S'I?C??A??_?_O?A`@@O'
(ttp1518
a(S'I?OG@??CA?AP?__H@O'
(ttp1519
a(S'I?G??@?__CG?OCOcCG'
(ttp1520
a(S'I?C_???PA?a@??`H@O'
(ttp1521
a(S'I?C??@AP?AG?S?`G@G'
(ttp1522
a(S'I?G??@?OOACQG?O@@_'
(ttp1523
a(S'IA??O@?O?`AOO?Q?@_'
(ttp1524
a(S'IA??OA?W?c?@O?O@K_'
(ttp1525
a(S'I?C?_A?OOc?_O?OPI_'
(ttp1526
a(S'IA??OA?_?cC?WOO@H_'
(ttp1527
a(S'IAG?OA?O?@AOO?O@H_'
(ttp1528
a(S'I?C@?G@?O?c?G?a@O_'
(ttp1529
a(S'I@?@?K@`??A?GGP@g?'
(ttp1530
a(S'I?O??@AGAAASCC?KB?'
(ttp1531
a(S'I?C?@A@??oCB@a?C?_'
(ttp1532
a(S'I??A?G?W_cC@??O@e?'
(ttp1533
a(S'I?CA@@?OC?@?O?aWAG'
(ttp1534
a(S'I?G?@@?OBE_?CC?G@G'
(ttp1535
a(S'I????E?_PGG?G?OPY?'
(ttp1536
a(S'I?C`???_@_`?CC?WCG'
(ttp1537
a(S'I?C??@?O@_GOG?QOE?'
(ttp1538
a(S'I?CA?A?C@?EG??P?B?'
(ttp1539
a(S'I????C?d??g?G?PSgG'
(ttp1540
a(S'I???OC?I@?`WGC?@C_'
(ttp1541
a(S'I?CA?H?Q@c?@G?Q?E?'
(ttp1542
a(S'I?C??@AH?A?COC_H?O'
(ttp1543
a(S'I@???A?C@O?EGaCC@_'
(ttp1544
a(S'IAG?_??C?@COCA?CH?'
(ttp1545
a(S'I?O?_??oCP?AG??@G_'
(ttp1546
a(S'I?C??A?KOA?P?I?C??'
(ttp1547
a(S'I???O?@A??aCD?_GGO'
(ttp1548
a(S'I?G@@_???O@?CC_G?O'
(ttp1549
a(S'I?O?`@??AOa@?A?C@?'
(ttp1550
a(S'I?C@@_???_@?O?OW?G'
(ttp1551
a(S'I?C@???G@AA@??OgC?'
(ttp1552
a(S'I?CS?????_AGCA?CA?'
(ttp1553
a(S'I?C@?G?G?_CA??OOC?'
(ttp1554
a(S'I?G@@_???OA?CA_@@O'
(ttp1555
a(S'I?Ca???GA`@?OGOS?G'
(ttp1556
a(S'I?C??@?OCCACCAa_?O'
(ttp1557
a(S'I?CC?A?C@A?ACA`??O'
(ttp1558
a(S'I?_@?A???S@G?C__CO'
(ttp1559
a(S'IC?_OG?OB?`?GCCO?G'
(ttp1560
a(S'I?OQ?C?D?aAA?C?HB?'
(ttp1561
a(S'IA???@OO?ODL?A_o?g'
(ttp1562
a(S'I?_?P@??@Q_?OCcg@G'
(ttp1563
a(S'I?OC?@?CQ?@GO?_WAG'
(ttp1564
a(S'I?O??@?G_c@@GA?DE_'
(ttp1565
a(S'I?G??@?__CGAOCOCCG'
(ttp1566
a(S'I????@?COgCOCAaOAO'
(ttp1567
a(S'I????OO?Q?D?SGgWGG'
(ttp1568
a(S'I???OG?Q??a?CCSKKG'
(ttp1569
a(S'I?O?O??__g??SCcGE?'
(ttp1570
a(S'IO?A?o@O?O@?GAOcKG'
(ttp1571
a(S'IC??_G@?@?_?CCOKIG'
(ttp1572
a(S'I@?A?S_H??@AGAOCK?'
(ttp1573
a(S'IA??OH?OACE?G?Q?D?'
(ttp1574
a(S'I?GA?G?Q@A?@C?`@Q?'
(ttp1575
a(S'I?G?OG?WOCG?CK??GO'
(ttp1576
a(S'I?C????OCC?aG?`@Go'
(ttp1577
a(S'I?K?_C?p?AG?C?O_D?'
(ttp1578
a(S'I???_EA?ASCc??O@H?'
(ttp1579
a(S'I?G__@?_B@C?C?O?B?'
(ttp1580
a(S'IA_?OA?G?@?O?c?@?O'
(ttp1581
a(S'I?C?oC?OOC?I??_W??'
(ttp1582
a(S'I???O@?O@G@I??dO?g'
(ttp1583
a(S'I?O?OA?_AE??W?Ooc?'
(ttp1584
a(S'I?C@???O?aAo?C@@A_'
(ttp1585
a(S'I???OA?CCA?_DG@G?W'
(ttp1586
a(S'IA??O@?o?aC?C?SGDG'
(ttp1587
a(S'I?CA?G?Y@C?@G?O@M?'
(ttp1588
a(S'I@?@?@?O?_AW??P?A_'
(ttp1589
a(S'I?GG?A?_AAC?O?O@D?'
(ttp1590
a(S'IAG?OA?o?CC?C?OGL?'
(ttp1591
a(S'I?CAOCA?C@G?G?[CGG'
(ttp1592
a(S'I?_?OC?GOCCA??OOGG'
(ttp1593
a(S'IA??`@?GC?GOCa?C@O'
(ttp1594
a(S'IG??OC?K@c_D?C?G?_'
(ttp1595
a(S'I?G?O@?P?A?AGE?CC?'
(ttp1596
a(S'I?C?_@?OOA?_OG_WO?'
(ttp1597
a(S'IA??O@?C@@?OO?aW?G'
(ttp1598
a(S'IAG?OG?O?EC?C?OGDG'
(ttp1599
a(S'IGO???ACC?GSG?_P?o'
(ttp1600
a(S'I@??OG?Oo_AQAG?D@_'
(ttp1601
a(S'I@?@?GGB??ACCA_`@O'
(ttp1602
a(S'I?O?OA?__CA@O?P___'
(ttp1603
a(S'IAO@?@?_?A?@C?cGCG'
(ttp1604
a(S'IA??O@?S@A?PG?`??_'
(ttp1605
a(S'I?C??C?G@c?@??OHM?'
(ttp1606
a(S'I?C??@A@??GCG__@@O'
(ttp1607
a(S'I?C??@?GCC?C?g_@?o'
(ttp1608
a(S'I?C??A?O@A?Q?A_@D?'
(ttp1609
a(S'I?C??C?_O__O??a@@O'
(ttp1610
a(S'I????@?Q?S@AO?bO?g'
(ttp1611
a(S'IOO??G?C?b_@??_H@O'
(ttp1612
a(S'IAO?O??_?AA?S?cGD?'
(ttp1613
a(S'I?C__??_@?K?C?o?F?'
(ttp1614
a(S'I?C__??C?O_CGE???O'
(ttp1615
a(S'I?_@?H?CC?@?GSe?AO'
(ttp1616
a(S'I?O?OG@?_?@AHCg@Co'
(ttp1617
a(S'I?_?OC?HAG?@G?OcK?'
(ttp1618
a(S'I???O@?OCg?I??SKCG'
(ttp1619
a(S'I?_?OO?GAo???[?C?O'
(ttp1620
a(S'I?G@?D???OAEG??@@_'
(ttp1621
a(S'I?_?OO?G?OCCC??k?G'
(ttp1622
a(S'I?G@?H???_@C?C_@AO'
(ttp1623
a(S'IAC@?G?C?C@?O_`W?G'
(ttp1624
a(S'I?G??C@?OC@AO?o?G_'
(ttp1625
a(S'I?C?_@?_BC@?Gc@_?O'
(ttp1626
a(S'I?GA?C?_OCC?C?o?J?'
(ttp1627
a(S'IA??OA?_?BC@@A_PAO'
(ttp1628
a(S'I???_C?`@G??GCP@I_'
(ttp1629
a(S'I?C?O@?G_CAC?K?G?O'
(ttp1630
a(S'I?CG?D?CA@??O?aW?G'
(ttp1631
a(S'I?C?_EA?ACCc??O@H?'
(ttp1632
a(S'I@???C?G?O_GGACDD_'
(ttp1633
a(S'I??A?O_P??`?GAOSKG'
(ttp1634
a(S'I???O@?G_GAO?K?KC?'
(ttp1635
a(S'I?C??A?GOC@_GK?@Go'
(ttp1636
a(S'I???O@?Q?SAAO?b?@_'
(ttp1637
a(S'I?O?O@?__`A@O?S?A_'
(ttp1638
a(S'I?G?OCAOC@AH??OG?_'
(ttp1639
a(S'I?O??@?`?PA@O?Q_?g'
(ttp1640
a(S'I?C?OC?GEB?OGC?c?_'
(ttp1641
a(S'I?O@???_Aa@@??c@E?'
(ttp1642
a(S'I?C@?GHAC?AC?AOcOG'
(ttp1643
a(S'I?CA?C?GOE??GC?DA_'
(ttp1644
a(S'I?G?O@?aAB??OGSC@G'
(ttp1645
a(S'I?_?_C?o_k??C?OOE?'
(ttp1646
a(S'I?G@?@@_OW_I??cO?o'
(ttp1647
a(S'I?g@?GA?_@??CCc@_O'
(ttp1648
a(S'I?CC?A?G@@?ACA_@GO'
(ttp1649
a(S'I?K_?A?_B@C?C?O?B?'
(ttp1650
a(S'I?CO_@?_Aa??PK?C@?'
(ttp1651
a(S'I?_?_O?OO?@?SG_Ww?'
(ttp1652
a(S'I?C?OC?Gc?BTAG?g?o'
(ttp1653
a(S'I?G?OC?P?A?a?C_@C_'
(ttp1654
a(S'I?G?OGGAC?KCCGSC@G'
(ttp1655
a(S'IC??OG@?`G_OGC_`?o'
(ttp1656
a(S'I?CA?C?o_cA@??O@E?'
(ttp1657
a(S'I?C?_G?PAB??CC_@AO'
(ttp1658
a(S'I?C?_O?oE?A?D?QCE?'
(ttp1659
a(S'I?C?_E@?OC?AO?O@G_'
(ttp1660
a(S'I??A?A?o@e??C?OOe?'
(ttp1661
a(S'I??C_S_?Q?@?W?O`W_'
(ttp1662
a(S'I???O?AI?@@OO_OS?g'
(ttp1663
a(S'I@?@?SOAA?A?GOO`G_'
(ttp1664
a(S'I??A?E_P?`G?CC?@I?'
(ttp1665
a(S'I?C?_C?WC?GAG?O@[?'
(ttp1666
a(S'I?G?OG@@D?@?W?Q?E_'
(ttp1667
a(S'I?C?O@?_OC?AGCa??O'
(ttp1668
a(S'IAO@???_?AA@C?PGOG'
(ttp1669
a(S'IOO??o@_?O@?S?_gKG'
(ttp1670
a(S'I?G?O@?W@A?S??O?B_'
(ttp1671
a(S'I?GI?SB??O@?O?oG[?'
(ttp1672
a(S'I?C?_@@?OG?A@?QK?G'
(ttp1673
a(S'I?C?OA?CCA?_HG@??o'
(ttp1674
a(S'I?C?P?@?_C?_??_g?O'
(ttp1675
a(S'I?O@?A?I??_CC?OWW?'
(ttp1676
a(S'I??C?W?QA?A?D?QCEG'
(ttp1677
a(S'I?G??@?O_C@D??Oc?g'
(ttp1678
a(S'I?G??@OCQGG?OCQCAG'
(ttp1679
a(S'I??A?C?q?a_?C?SOCG'
(ttp1680
a(S'I????C?G@c?@??OHm?'
(ttp1681
a(S'I???_@?K_@?OAK?G?O'
(ttp1682
a(S'I????@?G?a?QAS?H?O'
(ttp1683
a(S'I????A?_OO__@C_@GO'
(ttp1684
a(S'I@G????O@??IG?O@S_'
(ttp1685
a(S'I@_????C?O??CgDC?G'
(ttp1686
a(S'I????@?O@S@@??j_?g'
(ttp1687
a(S'I?_??@?C@?DC??eo?G'
(ttp1688
a(S'IAO@?A?_?A@?CA@OOG'
(ttp1689
a(S'IOG??CAC@A@D?A?O?g'
(ttp1690
a(S'I@?A?C?CO__?GG?D@_'
(ttp1691
a(S'I?OC?@AC??@KO?_W?g'
(ttp1692
a(S'I?_?O???@?I?@?a`DO'
(ttp1693
a(S'I@O?OA?????W??`@Ao'
(ttp1694
a(S'I?G????CCCCE??OCGg'
(ttp1695
a(S'I?_@????A_E???P@J?'
(ttp1696
a(S'I?C@???G?OEE??A@@_'
(ttp1697
a(S'I?C??A???C?@I_@@Ao'
(ttp1698
a(S'I?C@?@?G?a?@GG?DC_'
(ttp1699
a(S'I?O??I@@?OI?CG@@HO'
(ttp1700
a(S'I?S??O?`O?DA??gWGG'
(ttp1701
a(S'I@?OOA?_AQ??PG_O?O'
(ttp1702
a(S'I?C??CG?OcG?W?OPA_'
(ttp1703
a(S'I?O?O??___g?C?cOCO'
(ttp1704
a(S'I????A?GOC@_CK?GGO'
(ttp1705
a(S'I?_?OC?SC_?CG??@A_'
(ttp1706
a(S'I?GP????BAG?C?OOAG'
(ttp1707
a(S'I?C?o???PCCI??_W??'
(ttp1708
a(S'I?C???O?`@A@O?_HA?'
(ttp1709
a(S'I?G@???COAA@OGOGO_'
(ttp1710
a(S'I???OC?Q?C?AGCa@C_'
(ttp1711
a(S'I?C??A?GOC?`?g?@?o'
(ttp1712
a(S'I???OAAA?@COW?O@H_'
(ttp1713
a(S'I????A?OOU?a?A_P?O'
(ttp1714
a(S'I?O?_@?`?QK?C?@_@G'
(ttp1715
a(S'I?G?OC?___g?OCO?C?'
(ttp1716
a(S'I?GOOC??A?_?O?oOG_'
(ttp1717
a(S'I?CC?C?GU??GGA?`?O'
(ttp1718
a(S'I?C@?A?C@`?@?A?@A?'
(ttp1719
a(S'I?C?_??OOA?PO?_HA?'
(ttp1720
a(S'I?C?_??OOCDI??_W??'
(ttp1721
a(S'I?CH???G??@D??QK?G'
(ttp1722
a(S'I?C@?A??@OBF???G?_'
(ttp1723
a(S'I?O?_??C@@_?CA?GHG'
(ttp1724
a(S'I?C?_C?C?_EE???@@_'
(ttp1725
a(S'I?C??@?G?C?@Co?k?G'
(ttp1726
a(S'I?C??CAH?@G?W?OPG_'
(ttp1727
a(S'I?C?OC?WA?_@G?S?K?'
(ttp1728
a(S'I?C`???C?`C@G??@A_'
(ttp1729
a(S'IA??O??G@@?OW??@H_'
(ttp1730
a(S'IC???C?__Ca?CCOK?G'
(ttp1731
a(S'IA???A?S@@?PG??@G_'
(ttp1732
a(S'I@??OG?c@A??G?TCAG'
(ttp1733
a(S'I?CO_C???Og?O?qG@?'
(ttp1734
a(S'I?C??@?CCCAGO?Pc?g'
(ttp1735
a(S'I?CC?A?C?Q?CO?Oc?g'
(ttp1736
a(S'IAG??@?W?A?PO?O@C_'
(ttp1737
a(S'I?G??B?_`CK?C?O?F?'
(ttp1738
a(S'I????@GA??`@HO_@?o'
(ttp1739
a(S'I???OC?O?e?`??`@A_'
(ttp1740
a(S'I??A?OGP??@AGAOScG'
(ttp1741
a(S'I?G?OC?__KG?CG_@DO'
(ttp1742
a(S'I??E?S?GO?@?O?ogw?'
(ttp1743
a(S'I?C?_E??OQG?OK???_'
(ttp1744
a(S'I?C@?E???OGCC??o?G'
(ttp1745
a(S'I?CO???GA?CGCG_?@?'
(ttp1746
a(S'I?CA_????`@G?C?CA?'
(ttp1747
a(S'I?O?O@@aC?AOGg@@?o'
(ttp1748
a(S'I?C?OG@@O?C@GAYCAG'
(ttp1749
a(S'I?G?OA?O@A?o?CP?A_'
(ttp1750
a(S'I?O@?I@@?OI?CG@@H?'
(ttp1751
a(S'I?_?OA?WACA?OGO@L?'
(ttp1752
a(S'I?O?_GA_CB??C?OC@G'
(ttp1753
a(S'I?C?OC?P?`?H??_GA?'
(ttp1754
a(S'IB?????C??@?GoCC?_'
(ttp1755
a(S'I?O@O??G??GGG??`D?'
(ttp1756
a(S'IC?????C?_GACcCC??'
(ttp1757
a(S'I?c??????OAG?WCC@?'
(ttp1758
a(S'I?C??A?O@cA@??OHM?'
(ttp1759
a(S'I?O??@?__C@@GG`@?o'
(ttp1760
a(S'I?C??@?OCCAC??Qc?g'
(ttp1761
a(S'I?C@?A?OA?_?C?`GH?'
(ttp1762
a(S'I?C??C?`@?_?GC`@G_'
(ttp1763
a(S'I????@?G_GA@@W?H?O'
(ttp1764
a(S'IAO?O@?_?AC?C?cWCG'
(ttp1765
a(S'I?G@?G?cPC@A?c?OAG'
(ttp1766
a(S'I?G@?G?gSC@?Cc?_AO'
(ttp1767
a(S'I???_C?P?G@@GGQ?C_'
(ttp1768
a(S'I?G??@?_`d@@O?O?A_'
(ttp1769
a(S'I?G????K??cKO?O?P_'
(ttp1770
a(S'I?C@?E??A?G?G?@PI?'
(ttp1771
a(S'I?C????O@A`SGA?O?G'
(ttp1772
a(S'I??????G?_HG@K?@cO'
(ttp1773
a(S'I?O_O??C@?_@C?`G?G'
(ttp1774
a(S'I?CP?G???a@@G??DA_'
(ttp1775
a(S'I?C@?@?G@A?@G??`C_'
(ttp1776
a(S'IA??OO?_?OA?LEBC?O'
(ttp1777
a(S'I?GG?@?WAAA?O?O@D_'
(ttp1778
a(S'I?G?O@?O_@?q?C_@?o'
(ttp1779
a(S'IAG?O@?O?A?T??OC?g'
(ttp1780
a(S'I????I@@A?E?OGP@h?'
(ttp1781
a(S'I???OA?PBGG?G?OPM?'
(ttp1782
a(S'I????I?PC?K?CG`@h?'
(ttp1783
a(S'I?G@???CQA_?O?oGP?'
(ttp1784
a(S'I?G??@A@?PCGW?O?@_'
(ttp1785
a(S'ICG?_???CA@AO?OCO_'
(ttp1786
a(S'I?O??_GDA?ACGC?D@_'
(ttp1787
a(S'I?G??CGGOC@@O?O?A_'
(ttp1788
a(S'I?G?O@?gOAG?OK???O'
(ttp1789
a(S'I????O?`?G@AG__@CO'
(ttp1790
a(S'I?Ca???G??C?CI_PCO'
(ttp1791
a(S'I?C?_G?C@?I??O_`@O'
(ttp1792
a(S'I?G@???_?O@AGC@OGo'
(ttp1793
a(S'I?G?O??O?p?I?E???O'
(ttp1794
a(S'I?C??A??@C?@CQ_`GO'
(ttp1795
a(S'I???OA?Q?ACQG?O@D_'
(ttp1796
a(S'I?WA?O@?_?`?W?S@c_'
(ttp1797
a(S'I???_E_?OO_OO?O@H_'
(ttp1798
a(S'I?O@OI@@??I?C?@@J?'
(ttp1799
a(S'I????CO?O_g?W?OPg_'
(ttp1800
a(S'I???OC?WA?_@G?S?k?'
(ttp1801
a(S'I?c??C?G?A?O??_pCO'
(ttp1802
a(S'IAG??@?O?AA@O?O?S_'
(ttp1803
a(S'I?C??@?__cA@OO_HAO'
(ttp1804
a(S'I?O?OC?C?`G?C?aGB?'
(ttp1805
a(S'IOG??C?G?P@J?A?O?o'
(ttp1806
a(S'I???OC?GCcCG?A?@e?'
(ttp1807
a(S'I?C?O??P?gEC?A?@J?'
(ttp1808
a(S'I?W??A?__@?@O?S@a_'
(ttp1809
a(S'I?C??C?G_@@_OG?WOG'
(ttp1810
a(S'IA??OG@G@?@?HCA@Co'
(ttp1811
a(S'I@???@?o?_GA?_`@OO'
(ttp1812
a(S'IC???@?GA?_OCCa??O'
(ttp1813
a(S'I?G@?G@GOS_?O_O_@_'
(ttp1814
a(S'IA??OC?GC@?WGA?D@_'
(ttp1815
a(S'IAC@?A?_?A@@O?cGC?'
(ttp1816
a(S'I???_AG?COGa@O?@?O'
(ttp1817
a(S'I?CA?I?O_S?@??WcCG'
(ttp1818
a(S'I?O?OC?H??Ga??a@D?'
(ttp1819
a(S'I?OE?AHA??@?GI?DS?'
(ttp1820
a(S'I?O?_@?`?W??SCagCG'
(ttp1821
a(S'I??A?C_?Oe??CGOK@G'
(ttp1822
a(S'I?G??KOA@@G?G?OPI?'
(ttp1823
a(S'I???OA?O_C?_GK?@C_'
(ttp1824
a(S'I???O@?I?A?AHS?@?o'
(ttp1825
a(S'I?CC?C?o_OA@CG?gCG'
(ttp1826
a(S'I?_@?@@@?OA?Gk@@?o'
(ttp1827
a(S'I?G??C?_PC_@G?O@G_'
(ttp1828
a(S'I?G??C?_PC@@G?O_G_'
(ttp1829
a(S'I@???@?O@O@SGAA_?G'
(ttp1830
a(S'I???_G?OBC??C?oOm?'
(ttp1831
a(S'I@?????G?_@I@Q?D??'
(ttp1832
a(S'I@G??G?OB???C?o?]?'
(ttp1833
a(S'I@?C?COEA@??GAOcGG'
(ttp1834
a(S'I?G??@?__@@?OK_GOO'
(ttp1835
a(S'I?GH@C?_?U??CC?G@G'
(ttp1836
a(S'I@???CPAA?@?GAOcKG'
(ttp1837
a(S'I?C?_G?OBC??C?oOM?'
(ttp1838
a(S'IGG????P@O@F?A?O?g'
(ttp1839
a(S'I???O@?COGAIHC?C?_'
(ttp1840
a(S'I?C?`C???_c@???@?_'
(ttp1841
a(S'I?C`???C?OaCW??@@_'
(ttp1842
a(S'I?Ca???CP?A@?COKAG'
(ttp1843
a(S'I???OC?Y?A?QG?O@D_'
(ttp1844
a(S'I???_C_?C@AOO?O@I_'
(ttp1845
a(S'I???O@?Q?A?AGASSCG'
(ttp1846
a(S'IAO?_@?_?C@?S?aWCG'
(ttp1847
a(S'I?O??@?COcG?W?QOA_'
(ttp1848
a(S'I?G@???__P@AOC?O?g'
(ttp1849
a(S'I?O????C_SG?W?Po?g'
(ttp1850
a(S'I???_G?`?PC@??WcGG'
(ttp1851
a(S'I?CA?G?OOcC?G?Q@B?'
(ttp1852
a(S'I?C?_G@PC?@?W?Q_C_'
(ttp1853
a(S'I???OC?P?AAaGC?@C_'
(ttp1854
a(S'I?CA?@?O_d??GC?DA_'
(ttp1855
a(S'I?C?O@?G?a?QAS?G?O'
(ttp1856
a(S'I?G?OC?_AG@?OGTOGG'
(ttp1857
a(S'IAG?OG@O??@?O_SOCg'
(ttp1858
a(S'IAO?O@?C?@?OO?aW?G'
(ttp1859
a(S'I?G?OG?OB?@?CC`?I?'
(ttp1860
a(S'I????C@`_?@?SG_WcG'
(ttp1861
a(S'I?G?OG?`?AC@??OcCG'
(ttp1862
a(S'I?_@?C?g_k??CG?@D?'
(ttp1863
a(S'I?CC?O?Q?_AAP?QGC_'
(ttp1864
a(S'I?C??@?OCC?IG?`@?o'
(ttp1865
a(S'I?C?OC?X?@@G?AGo?G'
(ttp1866
a(S'I???O@?O@Q?c?Aco?G'
(ttp1867
a(S'I?O??G?_Cc??W?P@i?'
(ttp1868
a(S'I????@GA?_cSO?OO?g'
(ttp1869
a(S'I?C??@?O_cAD??_HAO'
(ttp1870
a(S'I???O@_`C?C@GARCAG'
(ttp1871
a(S'I?C?O@?O@AAQ??h?@_'
(ttp1872
a(S'I???O@?H?aC_O?_HF?'
(ttp1873
a(S'I???OA?I@C?GO?OWE?'
(ttp1874
a(S'I?G?OE?o_CG?C?O?F?'
(ttp1875
a(S'I?O?O@?G_cG?GA?DF?'
(ttp1876
a(S'I?_?OI?C@C???S_`GO'
(ttp1877
a(S'I?C??A?D?GAAOO_HHO'
(ttp1878
a(S'IA_??C?W?QAO??O@D?'
(ttp1879
a(S'I?C??@?O_C@AO?`W?G'
(ttp1880
a(S'I?C??A?P?__CCA_PGO'
(ttp1881
a(S'I?C??@?C_CAAGC@C?_'
(ttp1882
a(S'I?C@?@?G@A?@G?_`C_'
(ttp1883
a(S'I?G?OGBO??B?O?O?C_'
(ttp1884
a(S'I@?@?A?C?OG??O?c?g'
(ttp1885
a(S'I?G@?H???O@C?G_O?O'
(ttp1886
a(S'I?G@????_P@AOC_GO_'
(ttp1887
a(S'I?G?O??_`CG?CC__CO'
(ttp1888
a(S'I?G@??@?a?`D??OC?g'
(ttp1889
a(S'I??????O_g@Q?C_HCO'
(ttp1890
a(S'I?CO_???@?CIG?O@@_'
(ttp1891
a(S'I?G?O????pCIO?O?@_'
(ttp1892
a(S'I?G?O??_AAa?CC?CCO'
(ttp1893
a(S'I?O?OG?G?_DB???@C_'
(ttp1894
a(S'I?C????G?a?@DQ?@AO'
(ttp1895
a(S'I????@?GCA?C@G_H_O'
(ttp1896
a(S'I?G??@@?O?`_P__H?O'
(ttp1897
a(S'I???OC?SC?GAC?n??G'
(ttp1898
a(S'I?O??A?C?Q?@CGDG?W'
(ttp1899
a(S'I?OO?@?CA?H?OGaO?G'
(ttp1900
a(S'I?CO???G@?CH??o?A_'
(ttp1901
a(S'I?C????G_?`CDC_G?O'
(ttp1902
a(S'I?C?_C@?O?aGCA_@OO'
(ttp1903
a(S'I???OE?a?C_?W?P@H_'
(ttp1904
a(S'I?G??@?_aCA?OCOCE?'
(ttp1905
a(S'I?_@?A@?C?I?C_PCq?'
(ttp1906
a(S'I?C`???C?__CW??@@_'
(ttp1907
a(S'I?G`???_@O_?C??WCG'
(ttp1908
a(S'I?O??A@OQ?@GCG?WQG'
(ttp1909
a(S'I????C?H?WAAOCA@C_'
(ttp1910
a(S'I??A?G_?OSC?GG_PGO'
(ttp1911
a(S'I???O@?E??aO?c@K?G'
(ttp1912
a(S'IGG????_?oc?POOO@_'
(ttp1913
a(S'IB?@???G??@O??aHCO'
(ttp1914
a(S'I???O??O@_GGG?SOe?'
(ttp1915
a(S'I?_??@?G@?EC??Q?R?'
(ttp1916
a(S'I?G?OC?OC@?Q??_@G_'
(ttp1917
a(S'I?C??GGPC?ECG?O`@_'
(ttp1918
a(S'I?O?OA?_AA_?C?cOCO'
(ttp1919
a(S'I???OA?@@@@_O?_WI?'
(ttp1920
a(S'IG???A?K@PCR?A?O?_'
(ttp1921
a(S'I?O??CACAAASGC?`@_'
(ttp1922
a(S'IA??OD@?A?@?O?aWCG'
(ttp1923
a(S'I?C?OC?H@?aG?A?@D?'
(ttp1924
a(S'I?C?OCAQ?@?OG?aO?_'
(ttp1925
a(S'IA??_C?C@A@T?C?G?g'
(ttp1926
a(S'IA???G?OACA?CCPCGG'
(ttp1927
a(S'I?CA?A?G@?EC??O@J?'
(ttp1928
a(S'I?GS?????O@?Cg?K?G'
(ttp1929
a(S'I???OOGI?PC@CICG?W'
(ttp1930
a(S'I?C@?G?P?iAD?G?HB?'
(ttp1931
a(S'I???OOOI@?DD??_gG_'
(ttp1932
a(S'I???OGPAC?A?KQ?cGO'
(ttp1933
a(S'I???_CGAAD??CCOKAG'
(ttp1934
a(S'I@??OA?Pa@??KE?cE?'
(ttp1935
a(S'IA??O@?OAAG?G?SSCG'
(ttp1936
a(S'I?G??C?OC`?OCA?@I?'
(ttp1937
a(S'I??@?C?H?`?_CA?PI?'
(ttp1938
a(S'I?O?OA?oACA?G?O`L?'
(ttp1939
a(S'I?O?_??oAA@?G?OoS?'
(ttp1940
a(S'I??A_G?Q@B??C?_`P?'
(ttp1941
a(S'I???O@?G_GCQO?_PC_'
(ttp1942
a(S'I???OOOQ?_`CGA?SG_'
(ttp1943
a(S'I?G?OC@@??g?O?oGK?'
(ttp1944
a(S'I???OG?c@I?@G?TCAG'
(ttp1945
a(S'I?C??@?_OGAAO__@PO'
(ttp1946
a(S'I???_G?p?A?@CGWCCG'
(ttp1947
a(S'I?C??A@?O?c_G_C@?o'
(ttp1948
a(S'I?OA?@@?o__?GA?DB?'
(ttp1949
a(S'I?G@?_@?AAGCC?OC@G'
(ttp1950
a(S'I@??OG?gOO@?Pg?o?W'
(ttp1951
a(S'I?G@?_?C?ODD?AAO?g'
(ttp1952
a(S'I???O@@a@?aOGc@@?o'
(ttp1953
a(S'I?_A?E?OOG?@G?O@Y?'
(ttp1954
a(S'I?C@?G?H?Q@D?K?g?W'
(ttp1955
a(S'I??O?A@?_SC@CI?g_W'
(ttp1956
a(S'I?C?_??_`@A?OCO?A_'
(ttp1957
a(S'I?GI?E???@@?O?OOG_'
(ttp1958
a(S'I?C?_??_`@A?OCO_?_'
(ttp1959
a(S'I?G????W_OKQ??O?D?'
(ttp1960
a(S'I?G?OG?SB@_??C?O?G'
(ttp1961
a(S'I?G????X?A@AO?OOC_'
(ttp1962
a(S'I?C??@?CCC?GGW_@?o'
(ttp1963
a(S'I???_@?C?@Co??QKBG'
(ttp1964
a(S'I?G??@???_GC?k?@OO'
(ttp1965
a(S'I?C??C?GOGEG?A?@R?'
(ttp1966
a(S'I??@_G@?OW_?W?Q@O_'
(ttp1967
a(S'I?C?_C?CAGACOGa@P_'
(ttp1968
a(S'I?GA?@?_@A?@OO_`o?'
(ttp1969
a(S'I?G?OG?O?Q??CI`?@O'
(ttp1970
a(S'IOG?@C?CBA_?CC?G@G'
(ttp1971
a(S'I?Ca??@?@?AA?A``@O'
(ttp1972
a(S'I??A?K_H?`C?C?OOI?'
(ttp1973
a(S'IA?@?@A_?@AP?__H@O'
(ttp1974
a(S'I?_?OA?CBC???S_`GO'
(ttp1975
a(S'I?GG?C?CBF??CC?G@G'
(ttp1976
a(S'I?_A_@?OC?@?@?QSEG'
(ttp1977
a(S'I?G?_C?OOG?I??OPO_'
(ttp1978
a(S'IC???A@?B?G?D_OCBG'
(ttp1979
a(S'I?_?O@?q?C_?G_`@@O'
(ttp1980
a(S'I?C?OA?a?C?AGc?CC?'
(ttp1981
a(S'I?G?O@?O_G@E?ACS?G'
(ttp1982
a(S'I?GA?C?OOWG?CG_OW?'
(ttp1983
a(S'I?C@?O?`O?EAG?Q@@_'
(ttp1984
a(S'I???OG_CS?C@GAUCAG'
(ttp1985
a(S'I?C?O@?O_gCCGAC?B?'
(ttp1986
a(S'I?C??A?_OG?AHc?@?O'
(ttp1987
a(S'I?C?_A?Q?cCC?AO@J?'
(ttp1988
a(S'I?C?OD?_OG?AO?eO?G'
(ttp1989
a(S'I???O@??CGAOO?QcCg'
(ttp1990
a(S'I??@???a?S@AGc`@?o'
(ttp1991
a(S'I?O??A?O?Og?C?`GX?'
(ttp1992
a(S'I?G??@???_GCD_?CB?'
(ttp1993
a(S'I?C??C?H?GCE??OWGG'
(ttp1994
a(S'I?C?OC?OOA@_??co?g'
(ttp1995
a(S'I?_?O@?Q?C?AGc`@?o'
(ttp1996
a(S'I????CO?_`G?W?OPa_'
(ttp1997
a(S'I??@?W@P??@?CG`GgG'
(ttp1998
a(S'I????K?h?_c?C?OOk?'
(ttp1999
a(S'I?GD???G?O?EO??@G_'
(ttp2000
a(S'I????GOAA`C?C?_PIO'
(ttp2001
a(S'I?G??@O?_`C@CA_@AO'
(ttp2002
a(S'I?C?OC?T?A?aGC`??_'
(ttp2003
a(S'I???O@?G_GA@DW?G?O'
(ttp2004
a(S'I?G?O@_@??CGGW?O?_'
(ttp2005
a(S'IOC??A?CD?GEGa?C@?'
(ttp2006
a(S'I?_C?`?P?__C?AQSCG'
(ttp2007
a(S'I?GA?E?p?A??C?O?F?'
(ttp2008
a(S'I??A_C@A??g?C?a@SO'
(ttp2009
a(S'I?O?OAA?`@@OG??O?_'
(ttp2010
a(S'I?C@?G?E?C@?O_`WAG'
(ttp2011
a(S'I?C?OOO__?a?KE?CCO'
(ttp2012
a(S'I?C??C?_OgCQ??OOGG'
(ttp2013
a(S'I?O?_@O?S?KAC?QG@G'
(ttp2014
a(S'I?_?`@A@_?C@?A_PAO'
(ttp2015
a(S'I?O?PC@??cAI?A?HB?'
(ttp2016
a(S'I?GP?`?_AE?@??OC@G'
(ttp2017
a(S'IA??_G?OACC?C?POGG'
(ttp2018
a(S'IA??_C?_AC??CCPCGG'
(ttp2019
a(S'I?O?OG@Oo?AOGG?`@_'
(ttp2020
a(S'IO_??O?C`@AA?A_`@O'
(ttp2021
a(S'I?GA?C?cOC?@??OcGG'
(ttp2022
a(S'I???OCAQ?@?OG?_PG_'
(ttp2023
a(S'I?CD???_?Q??GG`@?o'
(ttp2024
a(S'I@G??A??@@?WO?O@A_'
(ttp2025
a(S'I??@?O@b??@?SGaGCG'
(ttp2026
a(S'I?CO?A?_??C??G_XGO'
(ttp2027
a(S'IA???@?WAAA?O?S@D_'
(ttp2028
a(S'IAG??@?O?AACCE??OO'
(ttp2029
a(S'IAG??B?O?A?PO?O?C_'
(ttp2030
a(S'I?CA?C?G?v?@?I?O?O'
(ttp2031
a(S'I?_??A?C_OH?OSCo?W'
(ttp2032
a(S'I?C??G@P?_`?W?QOC_'
(ttp2033
a(S'I??@???I?SAA?CQCC_'
(ttp2034
a(S'I?Ca???CB@??GC_`?O'
(ttp2035
a(S'I?O?O@?_P?a@C?AG?G'
(ttp2036
a(S'I?_?O@?g@Q??OO?o?G'
(ttp2037
a(S'IA??OO?_@?@?S?cWKG'
(ttp2038
a(S'I?G??GAOCDA?O_O@@_'
(ttp2039
a(S'I?CA?@?Oc@@?O?_WAG'
(ttp2040
a(S'I????A?__WG?OCScCG'
(ttp2041
a(S'I?C?_???PG?I?A_POO'
(ttp2042
a(S'I???OA?GO?HIB??O?O'
(ttp2043
a(S'I?CA?AB??Q@?OG_WCO'
(ttp2044
a(S'IA_?OC?G?CAG?C?@CO'
(ttp2045
a(S'I???OOO__?a?KE?CcO'
(ttp2046
a(S'I?_@?G?W_k??CC?@E?'
(ttp2047
a(S'I???_@?OOC@_O?Qo?g'
(ttp2048
a(S'I?G?OC?OC@?Q??OGGG'
(ttp2049
a(S'I????@?GOCAIAA?@@O'
(ttp2050
a(S'I?CA?C???cA@OGPGG?'
(ttp2051
a(S'I?O?PG?H?a@@?G?SA_'
(ttp2052
a(S'I??C?CGb??`?GC`@?o'
(ttp2053
a(S'I?CC?G@?P?A?W_S@A_'
(ttp2054
a(S'IC??OA?OAOc@?A?O?G'
(ttp2055
a(S'I?CC???G?OCE??a@?o'
(ttp2056
a(S'I?O??G?`?QA@O?P__G'
(ttp2057
a(S'I??@???__gG?S?c@F?'
(ttp2058
a(S'I?G??G?P@GG?C?oOM?'
(ttp2059
a(S'I???O@_?OC?AGc_@?o'
(ttp2060
a(S'I?GA?@?O@Q_???`O@_'
(ttp2061
a(S'I?C@???G?_CI???PC_'
(ttp2062
a(S'I?C@?A?GA?I?CO?DJ?'
(ttp2063
a(S'I?O@O????OAEG?A@@_'
(ttp2064
a(S'IB???A?O??CSG?O@G_'
(ttp2065
a(S'I@?D???G?O?CCI?GGW'
(ttp2066
a(S'I?G?OG?OOcG?CK??GO'
(ttp2067
a(S'I?C??G?OACc?K?`OG?'
(ttp2068
a(S'I?CC?@?G@@?ACAAW?W'
(ttp2069
a(S'I?C??A?Q?c@CGE?@IO'
(ttp2070
a(S'I???O@?S_GC@?Ad_?G'
(ttp2071
a(S'IA?A?CAC?AACHC?D@_'
(ttp2072
a(S'I?G?OC?P?AG?CK?GCG'
(ttp2073
a(S'I?O??A?OA?`@G?@@W_'
(ttp2074
a(S'I?G?OA?C@?`K?E???O'
(ttp2075
a(S'I?GA?@?_@????CQCEG'
(ttp2076
a(S'I?O??@?oAaA?C?C@F?'
(ttp2077
a(S'I?C?_??G@?GGCS??A?'
(ttp2078
a(S'I???_E?`?G?@O?O@M?'
(ttp2079
a(S'I?GO?@?_BA??C?OSAG'
(ttp2080
a(S'I?G??C?D?_`L?A?O?o'
(ttp2081
a(S'I???_??P??c_G?Q@D_'
(ttp2082
a(S'I????@?P?O_CGAYC@G'
(ttp2083
a(S'I?O??A?C@A?@C?TGAG'
(ttp2084
a(S'I?_??@?C@?aG?CTC?G'
(ttp2085
a(S'I?O@?@?COAg?C?cG@G'
(ttp2086
a(S'I?C?O??GCCAC?g?G?O'
(ttp2087
a(S'I?G?OC?q?AG?C?S_DG'
(ttp2088
a(S'IAG?OG?o?AC?C?S?DG'
(ttp2089
a(S'I??A?@?G@GGACSACOG'
(ttp2090
a(S'ICC??@??A?_OGCQC?G'
(ttp2091
a(S'IAG??C?_?@@@O?o?W_'
(ttp2092
a(S'I?_?_@?C?@CO??QCBG'
(ttp2093
a(S'IA???A?oAA??CCSCCG'
(ttp2094
a(S'I?CA?@?G?Q?C?C__?O'
(ttp2095
a(S'I?O?_??G@?HC??QOQ?'
(ttp2096
a(S'I???_@?O_C@_OG_WC?'
(ttp2097
a(S'I?OC?P?p??A?C?QgCG'
(ttp2098
a(S'I?C??OO_P?EAG?Q@@_'
(ttp2099
a(S'I?O?_G??B`??C??@J?'
(ttp2100
a(S'I?Gg???C?OC??APC@G'
(ttp2101
a(S'I?GAO??C@??G?CPCAG'
(ttp2102
a(S'I?Ca???SC?@?O?`WAG'
(ttp2103
a(S'I??????GCQ?CDG_G_O'
(ttp2104
a(S'I?????A?A@?OE?QS?G'
(ttp2105
a(S'IAG?_G?o?A??C?OCT?'
(ttp2106
a(S'IH?????GOOC@CI?gOW'
(ttp2107
a(S'I?G??CO?OOg?C?OKHG'
(ttp2108
a(S'I?O?O@?oAQ??G?@o?G'
(ttp2109
a(S'I?G?OG?OO_g?CC??GO'
(ttp2110
a(S'I?C??H?P??g?G?QSCG'
(ttp2111
a(S'I?C?OC?O?dAg?A?@B?'
(ttp2112
a(S'I?C?`??__?C_?G_@P?'
(ttp2113
a(S'I?G@?G?OCCG?C?`@i?'
(ttp2114
a(S'I?CO_???@AEACA?@@?'
(ttp2115
a(S'I?C@????@PA@C?Ag?G'
(ttp2116
a(S'I?C?_??OOQE@?G?G?_'
(ttp2117
a(S'I?G?OG?KCOCCOG???_'
(ttp2118
a(S'I?G?_C?p?AG?C?O?F?'
(ttp2119
a(S'I?C?_C?OOC@I??_W??'
(ttp2120
a(S'I???OA?a?C?AGc?@CO'
(ttp2121
a(S'I?G??OO?OOIAOCQC__'
(ttp2122
a(S'I????A?Q?S@GOG?WCG'
(ttp2123
a(S'IAO??A?_?AD?C?CWCG'
(ttp2124
a(S'I?G??@???_GCCk??OO'
(ttp2125
a(S'I?CA?AAO?e@@?C@G?O'
(ttp2126
a(S'I?G?OG?O_Cc?C?OGDG'
(ttp2127
a(S'I?CG?C?G@aGSCC?G@?'
(ttp2128
a(S'I??@?A@@??a_O?O@K_'
(ttp2129
a(S'I?C?_C?Q?A?CC?_WQ?'
(ttp2130
a(S'I?C?O_?GP?BPAc?g?o'
(ttp2131
a(S'IC??OG@?`GAQ?A_`@O'
(ttp2132
a(S'I?CG?@?OAAI???`@@O'
(ttp2133
a(S'I?CA?G?W_?c?G?S@D?'
(ttp2134
a(S'I?G?OC?OOG@GCACo?G'
(ttp2135
a(S'I?G?OC?`@AG?GC?@E?'
(ttp2136
a(S'I???_@?GOC@IAA?O?O'
(ttp2137
a(S'IGG????_D?@?POOOAg'
(ttp2138
a(S'I???O@?I@CEI?A?@D?'
(ttp2139
a(S'I???O@@aC?COGg`@?o'
(ttp2140
a(S'I?CG_@????GGGS???O'
(ttp2141
a(S'I?O??@?CA?H?GOEo?W'
(ttp2142
a(S'I?C??G@O?o_?P_`G@?'
(ttp2143
a(S'I?C@?A??@a?o?A@@B?'
(ttp2144
a(S'I?O??GAC?a@P?G@S?g'
(ttp2145
a(S'I?G??B@?OCCGO?OGA_'
(ttp2146
a(S'I?_?OE??ASA?OG@@H?'
(ttp2147
a(S'I???_??WCWCO?GA@C_'
(ttp2148
a(S'I?CO???G@?CHCA_?A?'
(ttp2149
a(S'I??A?A?OOC@@GG?Dg_'
(ttp2150
a(S'IA???@?O?SAD?AQC?G'
(ttp2151
a(S'IAO@?A?_?AG?C?POOG'
(ttp2152
a(S'IA??OE?_?`@@O?S?G_'
(ttp2153
a(S'I?C??COGQAG?C?Oc@G'
(ttp2154
a(S'I?C??C?o_cG?G?OPE?'
(ttp2155
a(S'I?O@?@@?e?@?C?cGEG'
(ttp2156
a(S'I?O?O@@_OOAQ?CAc?g'
(ttp2157
a(S'I@?A?W?I?O_?O_c@CO'
(ttp2158
a(S'I?G@?GACCDA?O_O_@_'
(ttp2159
a(S'I?Go?C?CBC_?CC?G@G'
(ttp2160
a(S'IAG?_??_?B@@O?OCO_'
(ttp2161
a(S'I???_@?`?X?@O?Qc?g'
(ttp2162
a(S'I?O??A?__PC?C?Sg@G'
(ttp2163
a(S'I?C@?G?g_C_?CC_@CO'
(ttp2164
a(S'I?C?@@?_E?C?PGaO?G'
(ttp2165
a(S'I?G?OA?_`CG?CC?_CO'
(ttp2166
a(S'I??@?A?OOGAA??OHX?'
(ttp2167
a(S'I???O@?Q?SCCGAA_@G'
(ttp2168
a(S'I?C@?A?WOG?H??OGQ?'
(ttp2169
a(S'I?G@?@@OOO_i??cG@_'
(ttp2170
a(S'I?C?_O?PO?G?SKGGGG'
(ttp2171
a(S'I?GA?_GA?@C?W?S@@_'
(ttp2172
a(S'I@??_G?WB?A?C?O@]?'
(ttp2173
a(S'I?C??C?OOA?QC?_W?G'
(ttp2174
a(S'IA?@?G?C?S??S_`W?G'
(ttp2175
a(S'IAC?OC?O?@?GC?cW?G'
(ttp2176
a(S'I?C????C?_CQ?a@O??'
(ttp2177
a(S'I?G??G?OB?@?CC`?Y?'
(ttp2178
a(S'I???_G?p?Q?@C?WcCG'
(ttp2179
a(S'I?G?OCAQ?@?OG?OOG_'
(ttp2180
a(S'I?O?_G?E?S@?Og@W?G'
(ttp2181
a(S'I?C?_??O_@_`?A_@OO'
(ttp2182
a(S'IA?????C?_GC?c_@OO'
(ttp2183
a(S'I?c??????O@C?cCc?G'
(ttp2184
a(S'I?G??C??OSGAOC_@G_'
(ttp2185
a(S'I??????C_WCOCA`o?W'
(ttp2186
a(S'I?C??A?O_OcS??_W??'
(ttp2187
a(S'I?O?_@@??oG?CI??@O'
(ttp2188
a(S'I?_?OC@C@__?C?@G?G'
(ttp2189
a(S'I?G?OC@GAO_C?A?C@?'
(ttp2190
a(S'I?G@??@CQA??C?_GAO'
(ttp2191
a(S'IAG?_@?O?A?D??OCO_'
(ttp2192
a(S'IA_?O??c?CA?OOa@@O'
(ttp2193
a(S'I?C?_@?_OC?AO__@@O'
(ttp2194
a(S'I?O??_?GA@@OCC?WGW'
(ttp2195
a(S'I@??O_GOO?GCGASSAG'
(ttp2196
a(S'I?G?PGA@_?C_O?oWB?'
(ttp2197
a(S'I???_@__@DCH??ooA_'
(ttp2198
a(S'I??A?C?gOI??CC_@QO'
(ttp2199
a(S'I?O??_GCC?GSG?_P?o'
(ttp2200
a(S'IA?@?A?C?_GGCQ?O@O'
(ttp2201
a(S'I?GG???C@?GC??OSGG'
(ttp2202
a(S'I?_@?@?_@c??G_@@B?'
(ttp2203
a(S'I@?A?DB??O@?P?agCG'
(ttp2204
a(S'I?GA?C?oOG@?C?aOQ?'
(ttp2205
a(S'I???OC?H?`C`??OGI?'
(ttp2206
a(S'I?GH???C??GC??OSGG'
(ttp2207
a(S'I?G?O?A?A@?GO?OC@G'
(ttp2208
a(S'I?C@?E??A?a@??@@G_'
(ttp2209
a(S'I?C?_@?_OC@AO_?S?G'
(ttp2210
a(S'I?C`???C?_`CO??W?G'
(ttp2211
a(S'I?GO?A?_BA@?C?OSAG'
(ttp2212
a(S'I???_@?COAA`@G?C?_'
(ttp2213
a(S'I?G@???COAa@O?OGO_'
(ttp2214
a(S'I????@A?A@?_DCAC?G'
(ttp2215
a(S'I?C????O_cDE?A?O?G'
(ttp2216
a(S'I?C??OOOO_G?SKGGGG'
(ttp2217
a(S'IGOW??@??OGOG?_P?o'
(ttp2218
a(S'I?Co?A?O?ocP?A?G@?'
(ttp2219
a(S'I?C@?O?_oO_?GA?c@G'
(ttp2220
a(S'I?_?O@?O@Q?C??co?G'
(ttp2221
a(S'I?C@???G?_CI?A?PC?'
(ttp2222
a(S'I?C@?A?O?_GE???@@?'
(ttp2223
a(S'I?C????C@?GG?SC_?G'
(ttp2224
a(S'I?CO_`@?C?GOO__G?O'
(ttp2225
a(S'I?G?O@?COCAIOC?C?_'
(ttp2226
a(S'I@??OA?P`?GCGAOoE?'
(ttp2227
a(S'I?G?O_?C@?GC??OS?G'
(ttp2228
a(S'I?C?OC?GOCEG?A?@B?'
(ttp2229
a(S'I?C?OA?OOA@OOG?W?G'
(ttp2230
a(S'I@?A?CO?_P@?GI?S_G'
(ttp2231
a(S'I?_?O@I?C?D?OGcWCG'
(ttp2232
a(S'I?Og@?@??OGOG?_P?o'
(ttp2233
a(S'I?C?_C?_OA@?OG_WO?'
(ttp2234
a(S'I?G?OG?p?A?@C?OcCG'
(ttp2235
a(S'I?O????GAS?`?Ga@CO'
(ttp2236
a(S'I?C??C?P?`?H??_HA?'
(ttp2237
a(S'I?G????`?a@@OGOCC_'
(ttp2238
a(S'I?GA???C?OAA?o?C@?'
(ttp2239
a(S'I?OK?A????@?O?`@G_'
(ttp2240
a(S'IA??O@?W?a?@O?S?C_'
(ttp2241
a(S'I???OC?I??cWG?O@D_'
(ttp2242
a(S'IC???C?OAc@@??_@I?'
(ttp2243
a(S'I???O@?_OC?_GGQC@G'
(ttp2244
a(S'I?G_O??C@_CE??O?@_'
(ttp2245
a(S'I?G??G?P@R_?CC?G@G'
(ttp2246
a(S'I?CA?C?G_C@@GG?DC_'
(ttp2247
a(S'I?OO?@?CA?c@C?aG?G'
(ttp2248
a(S'I@??OA?oOO@I@G?W?W'
(ttp2249
a(S'I?G@?A?SSC@H?G?GA_'
(ttp2250
a(S'I?G?O??O@a?Q??O?D_'
(ttp2251
a(S'IAG????O?AECCA?@P?'
(ttp2252
a(S'I?GS?????O@?Cg_G?O'
(ttp2253
a(S'I?G??@?GA?_@D_?CC?'
(ttp2254
a(S'I?GAO????O@C?g?S?G'
(ttp2255
a(S'I?OAOA????CA??`@H?'
(ttp2256
a(S'I???_@?O_GCB?A_@S?'
(ttp2257
a(S'I?C????O_gCQ??_HD?'
(ttp2258
a(S'I?G?PC???OGA??OS?G'
(ttp2259
a(S'I?O?_@A?C?A?CA?GCO'
(ttp2260
a(S'I?C?_??COA?A?COK?G'
(ttp2261
a(S'I???OC???a?o??`PAo'
(ttp2262
a(S'I@??OD??A?@COGeG?G'
(ttp2263
a(S'I?C??A?H?@?a?a?@@O'
(ttp2264
a(S'I?G??OO?Q?c@CAa@_O'
(ttp2265
a(S'I????C?HAG_@G?ODK_'
(ttp2266
a(S'I?G??@?_OG?AO__@PO'
(ttp2267
a(S'I??A?CG@?HAACCOK?G'
(ttp2268
a(S'I?G?_G?p?Q?@C?OcCG'
(ttp2269
a(S'I?G?O@?_AAC?W?P?B?'
(ttp2270
a(S'I?_A??GI@D??C?OSAG'
(ttp2271
a(S'I?C?_??C?_GGC[???O'
(ttp2272
a(S'I?Ca???C@@I???_`@O'
(ttp2273
a(S'I?O?_@?oAaA?C??@F?'
(ttp2274
a(S'I?G?O@?O_@?R??OC?g'
(ttp2275
a(S'I@??OE?`??_?W?P@G_'
(ttp2276
a(S'I?_?OA?H?@?A?c?@?O'
(ttp2277
a(S'I?G?O@?ObCA@??OGE?'
(ttp2278
a(S'I?C?_O?C?_CE??OK?G'
(ttp2279
a(S'I?C?O@?O_cEC?A?@B?'
(ttp2280
a(S'I?G?OO?G?OCEO??@?_'
(ttp2281
a(S'IA???A?oAA@?C?SSCG'
(ttp2282
a(S'I?C@?@?`?P??OCag?G'
(ttp2283
a(S'I?CA?@?K`?A@?S?KA?'
(ttp2284
a(S'I?GA@@?GE?@?Cc?CAO'
(ttp2285
a(S'I?C??@OG`@G?O?oOA_'
(ttp2286
a(S'I?C@?C?GCAAC??OGA?'
(ttp2287
a(S'I?GG?E??A@@?O?OOG_'
(ttp2288
a(S'I?GC???G?OCEO??@G_'
(ttp2289
a(S'IA??_G?OACC?G?O@L?'
(ttp2290
a(S'IA??O@?O?a?D??SC?g'
(ttp2291
a(S'I?G?OE?_OC_@O?O@G_'
(ttp2292
a(S'IA?@?A?_AA@?O?SOCG'
(ttp2293
a(S'I?C?_A?OA?_@O_?@C?'
(ttp2294
a(S'I?C@?I???OCC??Oo?G'
(ttp2295
a(S'I?CC??GGOOC@CI?g?W'
(ttp2296
a(S'I?_??C?HA@@?W?Oog?'
(ttp2297
a(S'I???OH?QA?_@G?UCCG'
(ttp2298
a(S'I???OC?GCcCc??OGI?'
(ttp2299
a(S'I?_??@?G?a?C@K?@?O'
(ttp2300
a(S'I?GC?C?C?O_GGA@C@_'
(ttp2301
a(S'I?CC?A?C@A?A??PC?g'
(ttp2302
a(S'I?CC?G?OA?_?G?`@GO'
(ttp2303
a(S'I?G??GAOC?@?P_OOCg'
(ttp2304
a(S'I@?A?A?C?o?G?Y?C@O'
(ttp2305
a(S'I?CP?A??@A?AC?_G@?'
(ttp2306
a(S'I?GC@??OCQ??CI?G?W'
(ttp2307
a(S'I?O?_G?SO?a?C??GH?'
(ttp2308
a(S'I?C??A?__C?@GOOCA?'
(ttp2309
a(S'I????I?`@@_?CC_@gO'
(ttp2310
a(S'I?C??CG@?_g?O?oOC_'
(ttp2311
a(S'IO_??O?C`@_?GC_`?o'
(ttp2312
a(S'IA_?O@?O?C??Gc`@?o'
(ttp2313
a(S'I?C@?A?C@?AF???@?_'
(ttp2314
a(S'I?GA?@?_@???OCQ?EG'
(ttp2315
a(S'I?C??@?GCA?C@G_H?O'
(ttp2316
a(S'I?G?OC?`@AG?CC?_CG'
(ttp2317
a(S'I????AO?P?_gC?OK@G'
(ttp2318
a(S'I????@?O_GCQG?_PC_'
(ttp2319
a(S'I?CA?C@?Q_`???OS?G'
(ttp2320
a(S'I?C?_C?C?_EE??OG@?'
(ttp2321
a(S'I?C?_??C_@CQO?_H@?'
(ttp2322
a(S'I?G??C?D?OgKGA?O@O'
(ttp2323
a(S'I?GO?A?C@A?@CA?CA?'
(ttp2324
a(S'I?O?O@?OO?`O??aO?g'
(ttp2325
a(S'I?GC???_SO?AO_OC?g'
(ttp2326
a(S'I?GA?O@P?OBAO?O?K_'
(ttp2327
a(S'I?O@_@?CQC?@C?AGAG'
(ttp2328
a(S'I?C?_D?P?A?E??_W??'
(ttp2329
a(S'I?G??G?OBD@?KC??I?'
(ttp2330
a(S'I?G??@???OAE@a??@O'
(ttp2331
a(S'I@?@?AB??O?WCA@G?W'
(ttp2332
a(S'I?C@?@?__`C?G?_PA_'
(ttp2333
a(S'I?O?_@?`?OG?SCAoCG'
(ttp2334
a(S'I??C?SOAA?@?GAOcKG'
(ttp2335
a(S'I?CA?AB?_OC@?AOcCG'
(ttp2336
a(S'I?O?????@_ICC?A@R?'
(ttp2337
a(S'I?O?_???@Pg?C??GHG'
(ttp2338
a(S'IA??OG?o?a??C?SCDG'
(ttp2339
a(S'IA?@?@?_?a?@O?p?O_'
(ttp2340
a(S'I?Co???OA?@?GC_`?o'
(ttp2341
a(S'I???_E@?OG?OO?O@I_'
(ttp2342
a(S'I?CC???G?OCE??QK?G'
(ttp2343
a(S'I????C?COCG?SCag_G'
(ttp2344
a(S'I?C????O_g?E?C_HOO'
(ttp2345
a(S'I?G`???_D?@?C?OWEG'
(ttp2346
a(S'I?O__??G?OGCCI?O@O'
(ttp2347
a(S'I?CG???C?_GC?c_@?O'
(ttp2348
a(S'I??C?CHAA?@?GAOcSG'
(ttp2349
a(S'I?C??@?GCA?Q?Q?C?G'
(ttp2350
a(S'I?C????CC@?OGi?C?G'
(ttp2351
a(S'I?O?_????OCEG?A@P_'
(ttp2352
a(S'IAC?_C?O?A?CC?_WO?'
(ttp2353
a(S'I???O@__O_HAPCAO?W'
(ttp2354
a(S'IAC@???G?@G?O?qOO_'
(ttp2355
a(S'I?C@???G?OEE??QG@?'
(ttp2356
a(S'I?C??A??OGCIO?_HP?'
(ttp2357
a(S'I?O?_@?pC?I?C?Q_D?'
(ttp2358
a(S'I?CO_C?O?q_P?A?G@?'
(ttp2359
a(S'I?C??C?GOOcWGA?O??'
(ttp2360
a(S'I?GA?@?WAQA?OG?@D?'
(ttp2361
a(S'I????@??CA?_DG?KCG'
(ttp2362
a(S'I?G@?@?__?a@O?OGS?'
(ttp2363
a(S'I????@?O@AAQ?A_@d?'
(ttp2364
a(S'I?G_O??O@_GA??O?D?'
(ttp2365
a(S'I?_?D@@?@AAA?A_`@O'
(ttp2366
a(S'I@C?_??OAO?CGa?cO?'
(ttp2367
a(S'I@?A?O?Y??AAP?Q@C_'
(ttp2368
a(S'I?O?OI@@@?I?C?@@J?'
(ttp2369
a(S'I?G?O@?O?QG?CI`?@O'
(ttp2370
a(S'I?O??A?Ca@G?C?Sc@G'
(ttp2371
a(S'I???OC?i?Cg?C?a@DO'
(ttp2372
a(S'I????A?O_S@D??Wc?g'
(ttp2373
a(S'IB??OE?_?C??W?P@G_'
(ttp2374
a(S'I?O?OA?GOCAAO?O@H_'
(ttp2375
a(S'IA???@?W@A?PG?O@C_'
(ttp2376
a(S'I?CC?@?_`?@?OO_w?G'
(ttp2377
a(S'I?G?OC?o_CI?C?O?F?'
(ttp2378
a(S'I?CA?A?OQE@?GG?S??'
(ttp2379
a(S'I?O?_@GP?PG?C??g@G'
(ttp2380
a(S'IA??_E?_?`@@O?O@W_'
(ttp2381
a(S'I@??OG?WB?A?C?S?M?'
(ttp2382
a(S'I?CO?A?G@OgOOc?G@?'
(ttp2383
a(S'I???O@A?A@?O?cGC?G'
(ttp2384
a(S'I@??OA????CW??`@Ao'
(ttp2385
a(S'I?C??@?GCC??Wg?@C_'
(ttp2386
a(S'I?_?O@?G_`K?@?_PAO'
(ttp2387
a(S'I?C??A?GCP?O?g?K??'
(ttp2388
a(S'I?C??@?G_C?AGC?DC_'
(ttp2389
a(S'I?G?O@?O?Q?@OG`??_'
(ttp2390
a(S'I?GAO????O@C?g_O?O'
(ttp2391
a(S'I?C?O@?_OCAAO__@@O'
(ttp2392
a(S'I?_@?@?F??HAGc@O?W'
(ttp2393
a(S'IA??OG?C@CA?WOA@@_'
(ttp2394
a(S'I?WA?O?_O?AAO?Q@p?'
(ttp2395
a(S'IA???@?O@AACC?_GP?'
(ttp2396
a(S'IA??OC?G?PCOGA?OG?'
(ttp2397
a(S'I?C??A?_OA@OGK?C??'
(ttp2398
a(S'I?C?_C?P?Q?E??_W??'
(ttp2399
a(S'I?GO?@?C@_CI??O?@_'
(ttp2400
a(S'I?O?_??oEAA?C??@E?'
(ttp2401
a(S'IA??OA?G?OGC@C?CG?'
(ttp2402
a(S'I??A?O@Q?_@AP?QGCG'
(ttp2403
a(S'IAO??A?g?A??CAC@DO'
(ttp2404
a(S'I?C@?P?_@__?CCAGCG'
(ttp2405
a(S'I?GA?C?gOCC?C?O?J?'
(ttp2406
a(S'I?G??G?`@AC@G?O@e?'
(ttp2407
a(S'I?CC@_?O?OA@Ca?g?W'
(ttp2408
a(S'I?_@?@?Ge?@??OOSAG'
(ttp2409
a(S'I@?G?@?GOAG?KQ?c@O'
(ttp2410
a(S'I?G_?@?O@_GA??O?D?'
(ttp2411
a(S'I?O?_G?CB@_?C???HG'
(ttp2412
a(S'I?G@?_@?A?GCC?QC@G'
(ttp2413
a(S'I?C_?G?G??C?CI_PCO'
(ttp2414
a(S'I?C?_CG@A@G?C?Oc@G'
(ttp2415
a(S'I?CO?@?GE?COOg_G@?'
(ttp2416
a(S'I?C`???C@@AAC?_G@?'
(ttp2417
a(S'I?C?_G@?`?I?D?PCB?'
(ttp2418
a(S'I?CC?@?G@_?ECa?W?O'
(ttp2419
a(S'I?C??@@@??aGGOOC?_'
(ttp2420
a(S'I?O?_@?_Ba??C??@F?'
(ttp2421
a(S'I?C@?G@OO?A?GGA`@_'
(ttp2422
a(S'I?C?`@?O@e?B?A?G@?'
(ttp2423
a(S'I?O?_G?C`@??C?OWAG'
(ttp2424
a(S'I?C????CC@?OCg?K?G'
(ttp2425
a(S'I?GA_WB??O@?DG?CKO'
(ttp2426
a(S'I?OC?GB??O@?S__gCG'
(ttp2427
a(S'I?C?_???@A?@?O_hOO'
(ttp2428
a(S'I?C???@?AC?GC?`_?O'
(ttp2429
a(S'I?C??C?_@C_?GC`@G_'
(ttp2430
a(S'I?GC???_A?C?C?OcKG'
(ttp2431
a(S'I?O?_??C@`?@?A?@I?'
(ttp2432
a(S'I?G??@?OCA?C?AOcOG'
(ttp2433
a(S'I?GG???OA@@?CC?KGG'
(ttp2434
a(S'I?G??C?COCG?W?OoG_'
(ttp2435
a(S'I?O??@?COCA@CIAG?W'
(ttp2436
a(S'I?_??@P?P?_GGC_`?o'
(ttp2437
a(S'I?GA?G?OOC??CC_`GO'
(ttp2438
a(S'I?C??@?__cG?OC`@AO'
(ttp2439
a(S'I?C??A?P?_gKCA?O@O'
(ttp2440
a(S'I?_@??@?OOa?Cac@@O'
(ttp2441
a(S'I?O?_@?DAH??W?Q_@_'
(ttp2442
a(S'I?G?_@?_`CC@??OGE?'
(ttp2443
a(S'I?O?_@?oAa??CC?@E?'
(ttp2444
a(S'I?OB?A?GS?I?C?O`X?'
(ttp2445
a(S'I?G??@OCPGG?W?QOA_'
(ttp2446
a(S'I@?B?I@Q?__?C?O@[?'
(ttp2447
a(S'I?C@?OAGC@?WCA?G?W'
(ttp2448
a(S'I?_A?COQ?aAC??O@B?'
(ttp2449
a(S'I?OA?C?_OU??G?Oo_G'
(ttp2450
a(S'I?GC?W?EA?C?O_P_OG'
(ttp2451
a(S'I?O?_E@@??_c??O@G_'
(ttp2452
a(S'I?C????G_@?PAG_@?o'
(ttp2453
a(S'I?C????G_SACCK?G?O'
(ttp2454
a(S'I?C??@?G?C@@Go?c?_'
(ttp2455
a(S'I?C????G?a@S?E?@AO'
(ttp2456
a(S'I?C?_??CO?_?Wc?@?_'
(ttp2457
a(S'I?C?_??COA@@GG?C?_'
(ttp2458
a(S'I???O@?Y?CCIG?O@D_'
(ttp2459
a(S'I?C??@?OOC@GO?_w?G'
(ttp2460
a(S'I?G?OG?q?A??C?ScDG'
(ttp2461
a(S'I?C??A?GOC?AAc?@?o'
(ttp2462
a(S'I?G??G?P?Q_?C?OKDG'
(ttp2463
a(S'I?G`???_@?a?C?OGD?'
(ttp2464
a(S'I?GP????BAA?C?OGB?'
(ttp2465
a(S'I?Ga???C@@??W?O@B_'
(ttp2466
a(S'IAG??G?W?CK?C?O@L?'
(ttp2467
a(S'IC??_C@?E?@?C?OKIG'
(ttp2468
a(S'I???OHAAACC?G?RC@G'
(ttp2469
a(S'I?CC?C@_a?A?CGc@CO'
(ttp2470
a(S'I????GGQC?ECG?O`P_'
(ttp2471
a(S'I?C?_O?C@?G?GO_`?o'
(ttp2472
a(S'I?C@O@?__@?@O?cg?G'
(ttp2473
a(S'I?Ca???S?O_?O?`W?G'
(ttp2474
a(S'I?C?_A?C`@GA?C?G?O'
(ttp2475
a(S'I?G@?A?C_T?AO?OG@_'
(ttp2476
a(S'I?C?_E?ca@C@?G?_@?'
(ttp2477
a(S'I?O??COC_PG?C?_g@G'
(ttp2478
a(S'I?_?PC??D_??G?O@A_'
(ttp2479
a(S'I?G@???C?Q@@?O__?o'
(ttp2480
a(S'I?G@?G?C?O@C?G_O?O'
(ttp2481
a(S'I?OC???C___CGA?D@_'
(ttp2482
a(S'I?O?_??C?O@K?G?W?W'
(ttp2483
a(S'I?_@?@?G?_@C?G?S?_'
(ttp2484
a(S'I?C????G?_CI@A?PC?'
(ttp2485
a(S'I?G??@???OAE@_?C@_'
(ttp2486
a(S'I?G??O?QA?C@G_S`C_'
(ttp2487
a(S'I???_O?oE?A?D?QCe?'
(ttp2488
a(S'I?_??C@?_OI?DG`@@O'
(ttp2489
a(S'I?C@_O?_S?AAO?Q@O_'
(ttp2490
a(S'I?O??@B?AAGSG?_`@O'
(ttp2491
a(S'I?CC?G?S_OCa@?`o?g'
(ttp2492
a(S'I@???C?a?OA@OOSgGG'
(ttp2493
a(S'I?O?????@_IC??Q@R?'
(ttp2494
a(S'I?G@_??__P?@O?O_O_'
(ttp2495
a(S'I?C????P?a?D??_HAO'
(ttp2496
a(S'I?C????O_`@OO?_WA?'
(ttp2497
a(S'I?G@???oEA??C?_@E?'
(ttp2498
a(S'I?????_@?PA?Wg?@@_'
(ttp2499
a(S'I?_?O@?Q?C_@G_`@?o'
(ttp2500
a(S'I?O?O@?a?_`OGc@O?o'
(ttp2501
a(S'I?OA?@@?Og_GHC?DA_'
(ttp2502
a(S'I?CG?G?O?QA@?COkCG'
(ttp2503
a(S'I?G?O@?O_@?P??Oc?g'
(ttp2504
a(S'I?_@@??C?_`?Cc?W?W'
(ttp2505
a(S'I?G??@?O_@AQO?O@@_'
(ttp2506
a(S'I?O?_GAOC?@?C?OWKG'
(ttp2507
a(S'I?CG???O?aECCA?@@?'
(ttp2508
a(S'I?C@?A?OA?`@G?`@G_'
(ttp2509
a(S'I?GO???_BAC?C?OOAG'
(ttp2510
a(S'I?GA???C?O@A?o?S?G'
(ttp2511
a(S'I?O?_??C@?AK??OGB?'
(ttp2512
a(S'I?OA?A???OCA??`@H?'
(ttp2513
a(S'I?_????C?OAC?gCC@?'
(ttp2514
a(S'I?g@?G?OOA_?C?c@`?'
(ttp2515
a(S'I?C?OA?GOC?GEK?G?O'
(ttp2516
a(S'I?C@?C?I?@@OGI?OG?'
(ttp2517
a(S'I@_??A??@???CQ_`WO'
(ttp2518
a(S'I?C????GCSAC?g?K??'
(ttp2519
a(S'I?O??@???`g?CAAOOW'
(ttp2520
a(S'I?CA???O?OI??Gb@@O'
(ttp2521
a(S'I???_???@A?@CQ_`oO'
(ttp2522
a(S'I?GG?@?C?P?@Ga???O'
(ttp2523
a(S'I?GG???C?PCGO?o?@_'
(ttp2524
a(S'I?_@@??C?_M???O@B?'
(ttp2525
a(S'I@?G_@?O??@GG?OCC_'
(ttp2526
a(S'IC?A?@?C@?A@?CQKAG'
(ttp2527
a(S'IA???@?G?S?@Ga?@CO'
(ttp2528
a(S'I?O??I@@@?I?C?P@J?'
(ttp2529
a(S'I?O??@?G_cG?W?OPE_'
(ttp2530
a(S'I?C??C?OOC@I??_W?G'
(ttp2531
a(S'I??@GAA_?Q@OCE?oCW'
(ttp2532
a(S'I?C@?W@AA?C?GOQ_OG'
(ttp2533
a(S'I????@?O_gG?WCS@E_'
(ttp2534
a(S'I?O?PGA@CAA@??_HAO'
(ttp2535
a(S'I@???A??@?G?CQ_`WO'
(ttp2536
a(S'I?O????C?_EE??QGP?'
(ttp2537
a(S'I?C@?A???C?g?C`@Ao'
(ttp2538
a(S'I?OC???W??G?G?O`K_'
(ttp2539
a(S'I@?@?I@b??@?CG_@KO'
(ttp2540
a(S'I?Oa?_B??O@?S?_WSG'
(ttp2541
a(S'I?_?_A?CBA??D?PSAG'
(ttp2542
a(S'I??C_W_OQ?@?CG_@WO'
(ttp2543
a(S'I@C?OD??A??COGeG?G'
(ttp2544
a(S'I?G???GOS?D@GIC@__'
(ttp2545
a(S'IAC??A?G?A?O?OOK@?'
(ttp2546
a(S'I@C??C?G@O?W??_gC?'
(ttp2547
a(S'I?Ca???G?OKC?G_P?O'
(ttp2548
a(S'I?_@?@A??_D@??@G?G'
(ttp2549
a(S'I?C?`G???OC?GG_P?o'
(ttp2550
a(S'I?C@?A?CA?@COK?O?g'
(ttp2551
a(S'I?C?_??O?a?@CGOKCG'
(ttp2552
a(S'I?C??G?OBC@?G?QoCG'
(ttp2553
a(S'I?G????C?Q@@@O?c?g'
(ttp2554
a(S'I?O?OA?OA?I?C?`@J?'
(ttp2555
a(S'IO?A?o@O?O@_GAOcKG'
(ttp2556
a(S'I???OE?`?`?@O?W@I_'
(ttp2557
a(S'I??A?GOG`GC?C?_PE?'
(ttp2558
a(S'I?OC?O_@A?A?WOO`G_'
(ttp2559
a(S'I???O@?a?CAAO_`@@O'
(ttp2560
a(S'I?CO_???@?_GGE?@?O'
(ttp2561
a(S'I?C??A??@C@@OO_`G_'
(ttp2562
a(S'I?CO?@?_BA??GC_`?O'
(ttp2563
a(S'I?CA@??O?_A@O?O@A_'
(ttp2564
a(S'I?G?O@?OCA?C?AOc?G'
(ttp2565
a(S'I?CA@??GCOC?WG?@?_'
(ttp2566
a(S'I?G?O@O?_`CAO?O?@_'
(ttp2567
a(S'I?O??@B??aGSCG?K@G'
(ttp2568
a(S'I?CA?@@?OOI?PCAc?G'
(ttp2569
a(S'I?CA?@?G__I?OS?DB?'
(ttp2570
a(S'I?O?O@?__Cg?G?`@@O'
(ttp2571
a(S'I???_G?E@C@?O_PWAG'
(ttp2572
a(S'I?C?OAA?A@?_@C_@GO'
(ttp2573
a(S'I?G?OC?OCC?E?A_@g?'
(ttp2574
a(S'I?G@?A@?AG?CO?O@Y?'
(ttp2575
a(S'I?G?O??O_?cP??O?Cg'
(ttp2576
a(S'I?G?O??O_?`CCA?S?G'
(ttp2577
a(S'I?G??@?W_cC@CA?@E?'
(ttp2578
a(S'I?C?_G?h?Q?@OOOc?G'
(ttp2579
a(S'I?GI?C???@??W?O@H_'
(ttp2580
a(S'I?G?O????p?I?E???O'
(ttp2581
a(S'I?O?_??COA?AW??@@_'
(ttp2582
a(S'I?GG???C?P?G?E_@?O'
(ttp2583
a(S'I?G????P?A?AW?O@D_'
(ttp2584
a(S'I?G????P?Q?AW?O?D_'
(ttp2585
a(S'I????@?X?AAAO?W@D_'
(ttp2586
a(S'I??@?A???S@g?C_gCO'
(ttp2587
a(S'I?C??@?GCC?CCg?K?G'
(ttp2588
a(S'I????A?Q??_CCA_PWO'
(ttp2589
a(S'I?_A_???@A?@CO_`oO'
(ttp2590
a(S'I????@?COC?_?KAC?g'
(ttp2591
a(S'I?_??@?o?g?B?_`@OO'
(ttp2592
a(S'I????W?QC?A?X?Q`C_'
(ttp2593
a(S'I?C??@?P??IE?CQC?G'
(ttp2594
a(S'I???O??G_?IQAO?@@O'
(ttp2595
a(S'I?C?OC?d?aG?GC@CA?'
(ttp2596
a(S'I?C?OCA?_@?OG?_P?o'
(ttp2597
a(S'I?C@?G?CS?H?O_cOAG'
(ttp2598
a(S'I?G@?G?CBB?@??_@A?'
(ttp2599
a(S'I?OA@G?DCAAA??_`@O'
(ttp2600
a(S'I???OC?`?GAAO?a@D?'
(ttp2601
a(S'I?G??@@?O?`?P?a??_'
(ttp2602
a(S'I?G???AD?AACO?OC@_'
(ttp2603
a(S'I?CC_????P?GCA?c?G'
(ttp2604
a(S'I?CO_???A?CGCG_?@?'
(ttp2605
a(S'I???OG?Q?a@B??SKCG'
(ttp2606
a(S'I?G??G?P?QC@GG?@C_'
(ttp2607
a(S'I?G?OG@O_?@?OGSOCg'
(ttp2608
a(S'I@?A?CGA?OaCGA?DP?'
(ttp2609
a(S'IA?A?CAC_CA@?O_H@O'
(ttp2610
a(S'I?G?OG?OBCA?CC@?I?'
(ttp2611
a(S'I@?@?o?G?P?OCAAG?W'
(ttp2612
a(S'I@?G?@?G@@?WGA?D@_'
(ttp2613
a(S'I?G?O@?_`CA@O?P?A_'
(ttp2614
a(S'I???OA?OOI?P??OKAG'
(ttp2615
a(S'I???OC?g_KG?C?_`DO'
(ttp2616
a(S'I????@?G_G@D@G_@?o'
(ttp2617
a(S'I???_@?Q?c@AO?QWCG'
(ttp2618
a(S'I???O@?C_GAO?K@K?G'
(ttp2619
a(S'I?O_O??CA?H?OG`O?G'
(ttp2620
a(S'I?CO_???@?CH??o?A_'
(ttp2621
a(S'I?C??A?P?ocL?A?G@?'
(ttp2622
a(S'IA??_A?C?S?GCO_W?O'
(ttp2623
a(S'I?C?OO?`??A?MEBCAO'
(ttp2624
a(S'IA??O@?O?QCCGACO?G'
(ttp2625
a(S'IAC?OO?_??A?LEBC?O'
(ttp2626
a(S'IA?@???G?PG?O?qOO_'
(ttp2627
a(S'I?G@?@@_P?@Q?AAOAG'
(ttp2628
a(S'IC???@?GCC@AO?QC?g'
(ttp2629
a(S'I?O?OG@I??@?HKA@Co'
(ttp2630
a(S'IA?A?A?O?PG?GC?DW?'
(ttp2631
a(S'I?CA@C??COA?W?O_?_'
(ttp2632
a(S'I?C?_c?C??AD??OK?G'
(ttp2633
a(S'I?O?PG???_A?CI?@@O'
(ttp2634
a(S'I?CC_A?aC?@GOO_HQO'
(ttp2635
a(S'I?CC?@?aC?CGHG`@?o'
(ttp2636
a(S'I?G?_@?O@C@a??QWCG'
(ttp2637
a(S'I?C@?G?C?g?DGGQCO_'
(ttp2638
a(S'I?C@???G?OCKC??w?G'
(ttp2639
a(S'I?CO_????OGGCK_??O'
(ttp2640
a(S'I?C?_C??@`@@G??@A_'
(ttp2641
a(S'I?G?O??O?Q@@?I`??O'
(ttp2642
a(S'I?C????CA?CO?_Po?G'
(ttp2643
a(S'I?CC???G?OCKC??k?G'
(ttp2644
a(S'IA?????C?QCPGAPC?G'
(ttp2645
a(S'I????@?G?a?QAQ?D@?'
(ttp2646
a(S'I@???@???_CWG?@@Ao'
(ttp2647
a(S'I@C????G?_?I@Q?D??'
(ttp2648
a(S'I????@?_OG?OCc?c?G'
(ttp2649
a(S'I?G@??@_a?D?C?cOe?'
(ttp2650
a(S'I?_??C?H?G_?W?OPK_'
(ttp2651
a(S'I?CA?C??A_E???P@B?'
(ttp2652
a(S'I?O?PA??AOa@?C?G?O'
(ttp2653
a(S'I?G?OOB?A???OOOC?g'
(ttp2654
a(S'I?O?_@ACC?GCGA?O?O'
(ttp2655
a(S'ICC?????__KQ??_P?O'
(ttp2656
a(S'I?C????O_`@QO?_W??'
(ttp2657
a(S'I?C????O_c_D??_H?O'
(ttp2658
a(S'I?G??G?P?@`?CC_GGO'
(ttp2659
a(S'I?C?OG@?O?c?H?a@?o'
(ttp2660
a(S'I@C?_???AA??OG`HOO'
(ttp2661
a(S'I?O??O@Ca?_SG?_`?o'
(ttp2662
a(S'I?O?OO?`E?A?C?a@EO'
(ttp2663
a(S'I????A?OOg@Q?E?@GO'
(ttp2664
a(S'IAG??@????GCCc_?OO'
(ttp2665
a(S'IA???A?_@AD?C?CWCG'
(ttp2666
a(S'I?C?_A?Y?C?AO?OPK_'
(ttp2667
a(S'I?G?O@?Q?A?D??Sc?g'
(ttp2668
a(S'I?GA?G?Q@C?@G?O@M?'
(ttp2669
a(S'I?O?_G?`?P?@O?W_GG'
(ttp2670
a(S'I?G@?G?_OG?ACCQCOG'
(ttp2671
a(S'I?O_?@?G?`?AC?O[?G'
(ttp2672
a(S'I?G?OE?`?`?@O?O@I_'
(ttp2673
a(S'I?GO?C?CAAA?OCOGA?'
(ttp2674
a(S'I?GQ?@??@aA?O?O@B_'
(ttp2675
a(S'I?GH?????@K?C?OGHG'
(ttp2676
a(S'I?GK???C??@?Go_@?o'
(ttp2677
a(S'I?G????C?Q@@@O__?o'
(ttp2678
a(S'I?GA???C?O@A?o_O?O'
(ttp2679
a(S'I???O_OA@@G?S?aG@G'
(ttp2680
a(S'I???OSPAA?@?GAOcKG'
(ttp2681
a(S'I????@?G_@?_CK?KOG'
(ttp2682
a(S'I?GA?G?OOG_?CCQCOG'
(ttp2683
a(S'I??@?GGAC?A?WOO`P_'
(ttp2684
a(S'I???OCOaC?A?KE?cK?'
(ttp2685
a(S'I?Og@??_?OAOGC?D@_'
(ttp2686
a(S'I?_?_c?CCA???O_POo'
(ttp2687
a(S'I?C?_??O`@@Q??_W??'
(ttp2688
a(S'IP???@?O?__KGA?D@_'
(ttp2689
a(S'I?G?OOA_?OC@Da?_CW'
(ttp2690
a(S'I?G@?@?__@AAOCO?O_'
(ttp2691
a(S'I?G?O@?COC?AGa??@O'
(ttp2692
a(S'I?_G?@?C?OK?GOaO?O'
(ttp2693
a(S'IA?@?A?C?OBD?C?K?_'
(ttp2694
a(S'I?O?O@?__@C@C?cGAG'
(ttp2695
a(S'I?O_O??CA?c@C?`G?G'
(ttp2696
a(S'I?CA?_?K?OA@?[?K?O'
(ttp2697
a(S'I?OC?A?S?O@E?A?o?g'
(ttp2698
a(S'I?G@???oCQGA??_@C?'
(ttp2699
a(S'I?O?_??gCQCA?A?@C?'
(ttp2700
a(S'I?GQ?A??AAC?O?O@B?'
(ttp2701
a(S'I?CH???G??@D??a@?o'
(ttp2702
a(S'I?G??@?C_@COO?o?B_'
(ttp2703
a(S'IAG?O@?O?C?GG?OCD_'
(ttp2704
a(S'I?G?OC?WAC?C??O?J?'
(ttp2705
a(S'I?O?O@@?_?H?GACSEG'
(ttp2706
a(S'I???O@?I?C?AGa?@DO'
(ttp2707
a(S'I??A?@?Q??a?Ca`@PO'
(ttp2708
a(S'I?G??C?G?OGKDI?O@O'
(ttp2709
a(S'I?G??@?COGCQO?QO?g'
(ttp2710
a(S'I?O??@@@E?@?S?aGEG'
(ttp2711
a(S'I????@?COGAQOCQC?g'
(ttp2712
a(S'I@?????O@?AIG?O@S_'
(ttp2713
a(S'I?_????C?O@@?gDC?G'
(ttp2714
a(S'I?O??@?OA?H?G?UoCG'
(ttp2715
a(S'I?CC???O?OG?GGb@?o'
(ttp2716
a(S'I?C@???G?ODE??aO?_'
(ttp2717
a(S'I?C??A?C@?_K?Cc@?o'
(ttp2718
a(S'I?CA?_??@?I?C?`@@O'
(ttp2719
a(S'I????A_?OOcOW?O@H_'
(ttp2720
a(S'I?C??A?H?A@aOOOS?g'
(ttp2721
a(S'I?C?O@?O_GCC?Aco?G'
(ttp2722
a(S'I?O@?A??A?_?G?PPW_'
(ttp2723
a(S'I?_@?AB??Q@?CA?oCW'
(ttp2724
a(S'I?G?_C?p?QG?C?O_D?'
(ttp2725
a(S'I?C@?C?G_C@aGC?@C_'
(ttp2726
a(S'I??A_C?OO?g?C?a@p?'
(ttp2727
a(S'I?C??C?I@C@GGA?OE?'
(ttp2728
a(S'I?G?_G?`@A?@O?O@E?'
(ttp2729
a(S'I?O?_@?O?Q?o??_gD?'
(ttp2730
a(S'I?G?O@?q?CG?C?QcDG'
(ttp2731
a(S'I???OE_?C@AOO?O@I_'
(ttp2732
a(S'I?OA?@@?q?_?G?Oc@G'
(ttp2733
a(S'I?C?_CAOCAGCGC?@?_'
(ttp2734
a(S'I?_A?@?SC?@?P?bOAG'
(ttp2735
a(S'IAO?OA?G?A@CDA?W?W'
(ttp2736
a(S'IAO?O@?_?A??S?cWCG'
(ttp2737
a(S'I?C??A?C@?_W??PK@G'
(ttp2738
a(S'I?G?O???O?`HO?OC?g'
(ttp2739
a(S'I?G@?@?CA?_@C_`??O'
(ttp2740
a(S'I?O?`G???O@??G?S?g'
(ttp2741
a(S'I?O?OO?a??@?SGcWKG'
(ttp2742
a(S'IA??_G?OACC?C?`@H?'
(ttp2743
a(S'I?C??G?D@?_?GSa@?o'
(ttp2744
a(S'I????C?H?__cO?OPG_'
(ttp2745
a(S'I???O@?P?GACCEAc?G'
(ttp2746
a(S'I?_?OD?CA@??OGeO?G'
(ttp2747
a(S'I??A?C?oOG@?C?aoOG'
(ttp2748
a(S'I?_P?@???_@ACc?W?W'
(ttp2749
a(S'I?G??COCQ?K?C?qOB?'
(ttp2750
a(S'I@?G_A?O??@G??OCC_'
(ttp2751
a(S'I?O?_@@?QAC?C??GAG'
(ttp2752
a(S'I?GQ????A?`?OC_@GO'
(ttp2753
a(S'I?C?_C??OAGAOCo??_'
(ttp2754
a(S'I?OA??@C?QAA?C@c?g'
(ttp2755
a(S'I?G????WOA@ACE??OO'
(ttp2756
a(S'I?G???A?CS?CO_OC?g'
(ttp2757
a(S'I???_CO?QAG?CC_@aO'
(ttp2758
a(S'I?G?OE?_O?`@O?S?G_'
(ttp2759
a(S'I?_?@OA?__@?OC_HQO'
(ttp2760
a(S'I????CG?OgG?W?OPQ_'
(ttp2761
a(S'I?G?O??_`C?@O?oGE?'
(ttp2762
a(S'I?G@?@@_P?@Q?a?OAG'
(ttp2763
a(S'IAG??@?O?C?GG?OCD_'
(ttp2764
a(S'I????@?COgCH?Ac@AO'
(ttp2765
a(S'IA??O??cACA?OOa@@O'
(ttp2766
a(S'I?GP????A?`@??OKGG'
(ttp2767
a(S'I?C@?O@__?a?W?P@O_'
(ttp2768
a(S'I???_K@@A?E?C?P_h?'
(ttp2769
a(S'I??@???I?S?A??aPCo'
(ttp2770
a(S'I???_G?P@P??CCGgGG'
(ttp2771
a(S'I?C?_G?_OA_?OC_@?O'
(ttp2772
a(S'I?C@O@??AA?COGkG@G'
(ttp2773
a(S'I?O?_O?`A?D?C?gOM?'
(ttp2774
a(S'I???_G?P@B?@G?O@a_'
(ttp2775
a(S'I?O_OG?W?P@Q?C?o?g'
(ttp2776
a(S'I????AOOa@G?CC_@aO'
(ttp2777
a(S'I?O?OC?GA?`@G?A@C_'
(ttp2778
a(S'I?G??@?P?A?AW?O@D_'
(ttp2779
a(S'I?G@?O?p??@?CGOWKG'
(ttp2780
a(S'I?G??CA?APAO??OCH?'
(ttp2781
a(S'I?C??GAPC@??G?aP?o'
(ttp2782
a(S'I?O??G?H?R_@??_H@O'
(ttp2783
a(S'I?G??C??OSG?WK?@G_'
(ttp2784
a(S'IAG?_C?O?@?H??O@O_'
(ttp2785
a(S'I??@?O?`O?DAC?gWGG'
(ttp2786
a(S'I?O?OSO?Q?I?C?a@B?'
(ttp2787
a(S'I????OO_P?DAC?gWGG'
(ttp2788
a(S'I?O?O@?_DA??C?cgCG'
(ttp2789
a(S'I???OA?GC@?_DG?GGO'
(ttp2790
a(S'I???OO@a?OAAOOUC?g'
(ttp2791
a(S'I?CC?@?qC?GOG_`@AO'
(ttp2792
a(S'I??C?W?E?_CAO_PGOG'
(ttp2793
a(S'IAG?O@?O?@AOO?Q?@_'
(ttp2794
a(S'I??A?@?Q?_`?Ca`OOO'
(ttp2795
a(S'IAG?OA?W?C?@O?O@K_'
(ttp2796
a(S'I?G@?@@_a?C?C?sOE?'
(ttp2797
a(S'I?OO?C?G?QG?C?Og@G'
(ttp2798
a(S'I@??O@?O@?AI??T??g'
(ttp2799
a(S'IAG?O@?o?AC?C?SGDG'
(ttp2800
a(S'I????A?C?QCQO?XO?g'
(ttp2801
a(S'I?O?_???@?GCC?a@R?'
(ttp2802
a(S'I?O@?@?C?@G?C?eGBG'
(ttp2803
a(S'I?_?OC???a?O??`PAO'
(ttp2804
a(S'IA?@_G@?C?@?W?Q@S_'
(ttp2805
a(S'I?_?OA?X?ACA??O@D?'
(ttp2806
a(S'I?O?S_A_?OA@CC?KKG'
(ttp2807
a(S'I?C?OA?GOQG?HI?S?O'
(ttp2808
a(S'I?_@?@?G__I?CC?DF?'
(ttp2809
a(S'I?C?OA?P?gCCGA?@J?'
(ttp2810
a(S'I?O?_@?COCG?CAAo?W'
(ttp2811
a(S'ICG??@??CC@AO?QC?g'
(ttp2812
a(S'I??@?O?fA?@?OG`OGG'
(ttp2813
a(S'IAG?OG?o?A??C?SCDG'
(ttp2814
a(S'IACA?A?O?@G?GC?DW?'
(ttp2815
a(S'I????K@@?_EAC?PGh?'
(ttp2816
a(S'I????A?D?g@E?c?C?_'
(ttp2817
a(S'I?G?????OSCB??OCGg'
(ttp2818
a(S'I?C?_???``HA?C?G?O'
(ttp2819
a(S'I?C?_??_`@_@??OC?g'
(ttp2820
a(S'I??????H?Q@DAG_G?O'
(ttp2821
a(S'I?O?OO?pC?A?C?QgCG'
(ttp2822
a(S'I?G?OOA_?OC@CaC_CW'
(ttp2823
a(S'I?O?O@?oAA??C?dOAG'
(ttp2824
a(S'I?G????OCQ?CCA?cOG'
(ttp2825
a(S'I?CO?O?_@?AQ?Aa`@O'
(ttp2826
a(S'I?G???O?_`CAO?O@@_'
(ttp2827
a(S'I?S?OOO__?C?CGgWCG'
(ttp2828
a(S'I?C?_@?oCb?Q?C?G?O'
(ttp2829
a(S'I?C@@A?CEA?OGA?c@?'
(ttp2830
a(S'I?G@?AACAC@L?C?_?o'
(ttp2831
a(S'I?O@?@@Ca?A?CCDGAG'
(ttp2832
a(S'I??@?IAAAC??C?_PKO'
(ttp2833
a(S'I?C?OC?G_CCAGA?OC?'
(ttp2834
a(S'I?G??G?P@?g?CC_@k?'
(ttp2835
a(S'I????C?H?Oc_C?aGD?'
(ttp2836
a(S'I??@?GGA?d??CGOK@G'
(ttp2837
a(S'I???_GOO`GG?G?OPE?'
(ttp2838
a(S'I?C?_A?OAG?O?K?@K?'
(ttp2839
a(S'I???O@?G_@?_HK?@?o'
(ttp2840
a(S'I?G?oC?p?AG?C?O?F?'
(ttp2841
a(S'I?C@???G?_CIC??WC?'
(ttp2842
a(S'I?G?O??O@?GGGCP?A?'
(ttp2843
a(S'I????AOCPIG?W?OPA_'
(ttp2844
a(S'I????CG@?_Hc?C_@AO'
(ttp2845
a(S'I????GOIB@C?C?OOIG'
(ttp2846
a(S'I?G@?G@__ODA??cOc?'
(ttp2847
a(S'I?G??K@?OCG?C?OCIG'
(ttp2848
a(S'I?CO?A?GE?COOgOG@?'
(ttp2849
a(S'I???OC?P?@@GGA?o_G'
(ttp2850
a(S'I?G?O@?__@@?OK_G?O'
(ttp2851
a(S'I?O??@?__`A?CAC@BO'
(ttp2852
a(S'I????@?O_@@_O?_wOG'
(ttp2853
a(S'I?C?OG?PAA?@G?WcCG'
(ttp2854
a(S'I???O??G@?EK??SGb?'
(ttp2855
a(S'I?G??@?P?OcKG?O?@_'
(ttp2856
a(S'I?G?O??CCACE?A_@?O'
(ttp2857
a(S'I?O?_@?GQAK?C??@B?'
(ttp2858
a(S'I????@@A?C@CGg_@?o'
(ttp2859
a(S'I?O?_??COCG?O?qOa_'
(ttp2860
a(S'I?O?_??OA?_@C?a@S?'
(ttp2861
a(S'I?CO???__Oc?O?_W?G'
(ttp2862
a(S'IC???A?`?o@@?k?C?o'
(ttp2863
a(S'I@?G?@?G?OCGO?_@C_'
(ttp2864
a(S'I?CO?A?_Aa@?OGOS?G'
(ttp2865
a(S'I?G@?G?C?_@C?C_@AO'
(ttp2866
a(S'I?O?OC?CA?`@G?b??_'
(ttp2867
a(S'I???OA?g`KG?C?_`DO'
(ttp2868
a(S'I????@?O_G@QGC`@?o'
(ttp2869
a(S'I?O?OA?`?`A@O?O@I_'
(ttp2870
a(S'I?C??A?P??_CCA_PGO'
(ttp2871
a(S'I??@?G?g_k??CC?@EO'
(ttp2872
a(S'I???OA?Y?ACQ??O@D_'
(ttp2873
a(S'I?G?Og????B?CU?C?O'
(ttp2874
a(S'I????@?P?AacCA_@@O'
(ttp2875
a(S'I????C?O?__SG?OPg_'
(ttp2876
a(S'I???????CP?_Gg_@Oo'
(ttp2877
a(S'I??????G?a@QES?G?O'
(ttp2878
a(S'I?G????O@?HG??OoSG'
(ttp2879
a(S'I?CA@C@@?a_AA?_P?o'
(ttp2880
a(S'I??A?@_H@BCA??oo@_'
(ttp2881
a(S'I?G??C??OAg?WCO@O_'
(ttp2882
a(S'I?GG?C??A@@@O?O?Gg'
(ttp2883
a(S'I?GOO???AAC?O?oWA?'
(ttp2884
a(S'I?OC???C__?CGI?D@_'
(ttp2885
a(S'I?G@@@??E?@?CAAOAW'
(ttp2886
a(S'I?C?OO@`A?A?OOYCAG'
(ttp2887
a(S'I?G?O@?OOI?Q?A_@@O'
(ttp2888
a(S'I?OC?GG?O?`?GAOSoG'
(ttp2889
a(S'I?C?_G@@O?C@CAg_GO'
(ttp2890
a(S'I?C?_A?a@C??WOOPI_'
(ttp2891
a(S'I?OA?C?h?g??CCO@M?'
(ttp2892
a(S'I?C????OOA@_O?_wOG'
(ttp2893
a(S'I??@?AA?CGACO?O@W_'
(ttp2894
a(S'I?O????__`A@O?S@a_'
(ttp2895
a(S'I????G?OBC@?C?`ogG'
(ttp2896
a(S'I?O??A?__?g?C?c@DO'
(ttp2897
a(S'I?GA?C?_@@_?CC_@w?'
(ttp2898
a(S'I?CA?C?_OI??GC_`OO'
(ttp2899
a(S'I@??_O?_o?CACAg@OO'
(ttp2900
a(S'I?G?O@AA?@C@DAAG?W'
(ttp2901
a(S'IAG??@?_?D@@O?QC?g'
(ttp2902
a(S'IAG??????ACCW?O@P_'
(ttp2903
a(S'I??????G?a@Q?E?@cO'
(ttp2904
a(S'I?GP????A?G?C?OSIG'
(ttp2905
a(S'I?C??C?COCG?SCag?G'
(ttp2906
a(S'I?C@?@?C@@?@G?a_?_'
(ttp2907
a(S'I?G??C?_OUAAO?O@@_'
(ttp2908
a(S'I?C??A?O@C_H??OGCG'
(ttp2909
a(S'I?C?_???PAE@??OGA_'
(ttp2910
a(S'I?G?OC?_A?@?GC@OAO'
(ttp2911
a(S'I?C????O@AAR??OGCG'
(ttp2912
a(S'I?CQ?A????C??G_XGO'
(ttp2913
a(S'IAO??@?g?AA?CAC@DO'
(ttp2914
a(S'I???OC?GQC?@O?q___'
(ttp2915
a(S'I@??OCPAA?A?GAOcK?'
(ttp2916
a(S'I?CC?G_?o?BAGE?COO'
(ttp2917
a(S'I@?A?@?OOaG_HG?DB?'
(ttp2918
a(S'I?C@?A?O?g?E??OWW?'
(ttp2919
a(S'I?GO?@?OBC_?CCAG@G'
(ttp2920
a(S'IA??OG?O?aC?C?SGDG'
(ttp2921
a(S'IA??_C?O?P?@??_HW?'
(ttp2922
a(S'I?C??O@PA?A?WGQ@C_'
(ttp2923
a(S'I?C@OO?__?c?C?cWCG'
(ttp2924
a(S'I?GK?C?CAB?OGC?@?o'
(ttp2925
a(S'I?C?OG?OQGC?G?U_@G'
(ttp2926
a(S'I?G?O@?Q?@AOO?Q_@_'
(ttp2927
a(S'I???OC?H@AA_??OHF?'
(ttp2928
a(S'I??@GG@C_SAA?C@c?g'
(ttp2929
a(S'I????C?o_gG?G?OPU?'
(ttp2930
a(S'I?_?OC?G?OCCC??w?G'
(ttp2931
a(S'I?G?OG?O?Q@@OG`??_'
(ttp2932
a(S'I???_E?_OSCa??O@H?'
(ttp2933
a(S'IA???@?C?SA@O_`G?O'
(ttp2934
a(S'I?OG???C?QE@CA@G?G'
(ttp2935
a(S'I???O@?Q?c?E?AQC@G'
(ttp2936
a(S'IA??_??O?QCP??_HC?'
(ttp2937
a(S'IAC??@?O?CAD?AQC?G'
(ttp2938
a(S'I?C??C?H?AACOK?H??'
(ttp2939
a(S'I?C??G?CA_DOOg@O?G'
(ttp2940
a(S'I?G??C?_BD??C?o?J?'
(ttp2941
a(S'I?C?_GA?@?H?G?OS?G'
(ttp2942
a(S'I?G?OA?C@?_KOC?@?_'
(ttp2943
a(S'I?CG???C?_GGCS_??O'
(ttp2944
a(S'I?G?Oc?G??@DO??@?_'
(ttp2945
a(S'IAC?O??G?@?H@A?C?G'
(ttp2946
a(S'I?G@?@?__C@AOC_GC?'
(ttp2947
a(S'I?CA@C??C_??W?O@A_'
(ttp2948
a(S'I?C@?A??@`?@C??GA?'
(ttp2949
a(S'I?G@?@??Q?@?GC?o?o'
(ttp2950
a(S'I?G?O???_?`CO?OS?g'
(ttp2951
a(S'I?C@?E????g?G?@PG_'
(ttp2952
a(S'IA?A?@?G@?@CCc?W?W'
(ttp2953
a(S'I?GG?C?C@?GGDC@G@G'
(ttp2954
a(S'I@?G?A?O?OCC??_@G_'
(ttp2955
a(S'IA???G?OAD@?GC_@GO'
(ttp2956
a(S'I???O@?O_Cac?A_@@O'
(ttp2957
a(S'I?O@?A???_g?CA@@X?'
(ttp2958
a(S'I?G??@?_a@??OCOCQG'
(ttp2959
a(S'I?O?_??DAG@?Ce@_?W'
(ttp2960
a(S'I??@???E?c@ACe@G?W'
(ttp2961
a(S'I?G??@?O_?cSG?O@@_'
(ttp2962
a(S'I???O@?GOAAa@A?@@O'
(ttp2963
a(S'I?O??@?__cK?G?P@B?'
(ttp2964
a(S'I?G@?G?CQA??CC_@AO'
(ttp2965
a(S'I????@?GOG@GHK?@?o'
(ttp2966
a(S'I???_@?COcCGO?WOA_'
(ttp2967
a(S'I?_?O??P??a?Ca`@@O'
(ttp2968
a(S'I?OC???CQ?@?S?aWAG'
(ttp2969
a(S'I?C@?@?Ga@G?G?_PAO'
(ttp2970
a(S'I????A?E?QCCO?So?g'
(ttp2971
a(S'I???OC?`Ai??CC_@EO'
(ttp2972
a(S'I?C????O_gCQ??OWCG'
(ttp2973
a(S'I?C@??@?a?@?SGcWCG'
(ttp2974
a(S'I?O?OC?CA?I?C?b?B?'
(ttp2975
a(S'IA_?OC?W?AAO??O@D?'
(ttp2976
a(S'I?G??@?C@?_SO?QO?g'
(ttp2977
a(S'I?O?OC?CA?_?C?bG@G'
(ttp2978
a(S'I?G@???_OA`@O?c@__'
(ttp2979
a(S'I?C@?@?G_cG?GS?DA_'
(ttp2980
a(S'I?G?O@?O_G@QO?`O?_'
(ttp2981
a(S'I??A?@@QC?GAG_`@OO'
(ttp2982
a(S'I?O?_O@@O?@AO?wGG_'
(ttp2983
a(S'I?O?PGA@CA@?GA?SAG'
(ttp2984
a(S'I?CG???O?_CKG?O@@_'
(ttp2985
a(S'ICC??????_GACcCC??'
(ttp2986
a(S'I?O_O??CA?H?GG@S?G'
(ttp2987
a(S'I?O?O@?_AOE@?OA_?G'
(ttp2988
a(S'I?GC?c?C?O?KGA?C@_'
(ttp2989
a(S'I?G??C?_BC??CCP?IG'
(ttp2990
a(S'I?G??@?__@AAOCOCO_'
(ttp2991
a(S'I????@@?O?`?Q?e??_'
(ttp2992
a(S'I?????AD?@A_Ga?@@O'
(ttp2993
a(S'I?S????G??GOG_?`D?'
(ttp2994
a(S'I?C?`??OAOc@?a?O?G'
(ttp2995
a(S'I?C?OO@?P?AADAIG?W'
(ttp2996
a(S'I??A?G?Y@C??G?OPM?'
(ttp2997
a(S'I?O??@?OA?a@C?UGCG'
(ttp2998
a(S'I?C?OC?GOCAI?C?G?O'
(ttp2999
a(S'I?GC?C?h??K?CGO@L?'
(ttp3000
a(S'I???OCGA?OaS?A_@@O'
(ttp3001
a(S'I???OC?G_GCQG?O@D_'
(ttp3002
a(S'I?C??A?GC@?OQG?@G_'
(ttp3003
a(S'I?GI?C?C?@G?O?O?HG'
(ttp3004
a(S'I?C??A?GOSCH?AOc?G'
(ttp3005
a(S'I?G?OG?O`CI?C?O?F?'
(ttp3006
a(S'I?G?O@?pAAE?C?O?F?'
(ttp3007
a(S'I?G?O@?_OAG?OK_@?O'
(ttp3008
a(S'I?C?_C?OO?_WC?_W??'
(ttp3009
a(S'IC??OG?O@_`?CC?WGG'
(ttp3010
a(S'I?G?O@?C@A?o?S_g?O'
(ttp3011
a(S'I?C?OA?GCC?_?W?KG?'
(ttp3012
a(S'I???OA???Q?@F?@g?W'
(ttp3013
a(S'I?C??@?O@AAS?A_@B?'
(ttp3014
a(S'IAO@?A?_?A?@C?SGCG'
(ttp3015
a(S'I?C??GOGS?C@CAg_GO'
(ttp3016
a(S'IA??O@?C?`?OG_?C@_'
(ttp3017
a(S'I?G?OC?K@P_Y?A?O@_'
(ttp3018
a(S'IA?@?@?_?SA?SCAGCG'
(ttp3019
a(S'I@??_G?P??K?C?w_L?'
(ttp3020
a(S'I?O??O?`??@?SGgWKG'
(ttp3021
a(S'I?G?O??W_CAAO?O@D_'
(ttp3022
a(S'I???O@?Q??aO?a`@@O'
(ttp3023
a(S'I?G?OC??C?GACOSCGG'
(ttp3024
a(S'I?c????C?_?G@O_PAO'
(ttp3025
a(S'I?C@?@?CQAA@O?cGA?'
(ttp3026
a(S'I?CC?c?SA?@G??`W?G'
(ttp3027
a(S'I?G??GAOCC@?O_OOCg'
(ttp3028
a(S'I?C??C?COc@BO?aG?_'
(ttp3029
a(S'I??@?G@__?EAG?P@p?'
(ttp3030
a(S'I?_??COGQI??C?Oc@G'
(ttp3031
a(S'I??@_K@aC?A?C?O`[?'
(ttp3032
a(S'I?C?OC?GAb_P?A?O?O'
(ttp3033
a(S'I?G@?G?cSC@?Og?OAG'
(ttp3034
a(S'I?CO_???_Og?OC_G?O'
(ttp3035
a(S'I?G?_??C@?_L?A?@OO'
(ttp3036
a(S'I@?@?G?C?_@DGGQCo_'
(ttp3037
a(S'I?C?O??PAGC?C_`WAG'
(ttp3038
a(S'I???_@?C_CC_O?Po?g'
(ttp3039
a(S'I???_G?_OQC@?G_@oO'
(ttp3040
a(S'I?C?_@?O@Q?S?A?o?G'
(ttp3041
a(S'I?G?OG?C@K??CQ_oGO'
(ttp3042
a(S'I?C?_G?_@HC?G?Q@R?'
(ttp3043
a(S'I@???W?Q?__?X?Q@C_'
(ttp3044
a(S'I???O@?O@aAS?AG@B?'
(ttp3045
a(S'I???_@AA@@?W??_P?o'
(ttp3046
a(S'I?GB?C??AA??GOO`p?'
(ttp3047
a(S'I???_G?S@C_?CC@GgG'
(ttp3048
a(S'I?C?_??_OC?_?Ga@@O'
(ttp3049
a(S'I?C?_@?_@@A@?c?g?O'
(ttp3050
a(S'I?G?OG?Q?SK?G?Q_D?'
(ttp3051
a(S'I?C?OG?K`DCA?A_o@?'
(ttp3052
a(S'I??@?@?GOC?i??_P?o'
(ttp3053
a(S'I?C?OG@?O?A?LEAc?O'
(ttp3054
a(S'I?G??C?__`??OCS@a_'
(ttp3055
a(S'I?CO_G??@?I?OCO_G?'
(ttp3056
a(S'I?CA???O_c_?W?OPC_'
(ttp3057
a(S'I?C@?A?C_@G?O?sg@?'
(ttp3058
a(S'I?G?O??G?Q@@GW?C?_'
(ttp3059
a(S'I?G?OC??OAg?WCO@?_'
(ttp3060
a(S'I?C?_G??@A?@?O_hOO'
(ttp3061
a(S'I?C??A@?AC@CG_?CA?'
(ttp3062
a(S'I?Go???_D?@?P?OOAg'
(ttp3063
a(S'I?G????W`?HQ?C?@C?'
(ttp3064
a(S'I?G?DC@??q?AO?OG@_'
(ttp3065
a(S'I????G?T@?a?CC@GgG'
(ttp3066
a(S'I?G?OC?COAG?WK?@?_'
(ttp3067
a(S'I?C?_@?C?`?@?g?G?O'
(ttp3068
a(S'I?O?OG?G?_K?CO?@B?'
(ttp3069
a(S'I?C@?A@C@_GC?A?@A?'
(ttp3070
a(S'I?O?_??_?O@GCG?WCW'
(ttp3071
a(S'I?O?_@A??ODH?A?oCg'
(ttp3072
a(S'I????@?C@?DS??io?g'
(ttp3073
a(S'I????C?G@Cag?AO@D?'
(ttp3074
a(S'I?O??A?__PA@O?S___'
(ttp3075
a(S'I?O????CA@aH??_HPO'
(ttp3076
a(S'I@?A??A??_@?OGPSGg'
(ttp3077
a(S'I?CA?@?O__D@??`OA_'
(ttp3078
a(S'I????C?COgG?S?aGR?'
(ttp3079
a(S'I??A?HOA?Oc?G?RC@G'
(ttp3080
a(S'I?CA?O@G`?_?W?S@C_'
(ttp3081
a(S'I?CA???OaC@?G?OsCG'
(ttp3082
a(S'I?C@?G?E?c??WSA@A_'
(ttp3083
a(S'I?C@?G?E?C??S_`WAG'
(ttp3084
a(S'IC?????G_OKQ??OC@G'
(ttp3085
a(S'I??@OO?_O?@AO?cWgG'
(ttp3086
a(S'I@???C?C@_AWCA@?A?'
(ttp3087
a(S'I?G?PGA?_KC?O?oWB?'
(ttp3088
a(S'I?G?OA?CA?_@Oo?@?O'
(ttp3089
a(S'I?G@????QA`@O?o?O_'
(ttp3090
a(S'I?G????C?O@I@Q?O?W'
(ttp3091
a(S'I??????C?Q?@@GHC?g'
(ttp3092
a(S'I?G??GP?OOc?GAQC`?'
(ttp3093
a(S'I?O??G?SOaAP?G?HB?'
(ttp3094
a(S'I?C_?G?G?OKC?G_P?O'
(ttp3095
a(S'IA???A?G?P?O?_OK@?'
(ttp3096
a(S'I@???C?C@_AW??P?A_'
(ttp3097
a(S'I?G??A?oCCG?C?OCM?'
(ttp3098
a(S'I?CA?O@CAOC?GW@_?W'
(ttp3099
a(S'I@????GGOOC@CI?gOW'
(ttp3100
a(S'I?C???H@A?E?WOO`@_'
(ttp3101
a(S'I??????C?Q@@@GHC?g'
(ttp3102
a(S'I@?O?@?CAOG?WWAo?W'
(ttp3103
a(S'I?G@?_@?AA@CO?OO?g'
(ttp3104
a(S'I????G?P@gG?G?OPM?'
(ttp3105
a(S'I???O@?Q?c?ACc`G?O'
(ttp3106
a(S'I?C??C?H@`?GCA?PA?'
(ttp3107
a(S'I?C@?A?GA?`@GO?DG_'
(ttp3108
a(S'I?G?OC?`E?C?C?oOM?'
(ttp3109
a(S'I???OI_HA@C?C?_PIO'
(ttp3110
a(S'I@C@?C?G?O?K??_gO?'
(ttp3111
a(S'I???O???CAACHG?@_o'
(ttp3112
a(S'I?C??@?G?C?@Go?`?o'
(ttp3113
a(S'I?C??A?O@A?Q??oOC_'
(ttp3114
a(S'I?C??A?O@A?QCA_OC?'
(ttp3115
a(S'I?OG?G@C_?A?CC@KAG'
(ttp3116
a(S'I?C?_??O_?KQ??_PC?'
(ttp3117
a(S'I?OA@G?C?eA@?G?DB?'
(ttp3118
a(S'I?CA?@@?__K?GO_PAO'
(ttp3119
a(S'I?G?OG?Q?QC@??SgCG'
(ttp3120
a(S'I?G?O@?O_Cg?O?oGD?'
(ttp3121
a(S'I???@?OG_W@@O?Oc?g'
(ttp3122
a(S'I??@_??GOWG?OCQ_O_'
(ttp3123
a(S'I?G????W_SC@CA?_C?'
(ttp3124
a(S'I?GO?C?CA?_?O?oOG_'
(ttp3125
a(S'I?CC?C?_?Q??GG`@?o'
(ttp3126
a(S'I@??_C?C?O@W?O_g?O'
(ttp3127
a(S'IAG?OA?_?CC?WOO@H_'
(ttp3128
a(S'I?O??@?O?c@g??`OA_'
(ttp3129
a(S'I?O?OS@?A?@?C?eGEG'
(ttp3130
a(S'I?OE???W????G?O`K_'
(ttp3131
a(S'I???_@???G@@H_@CA_'
(ttp3132
a(S'I?G??@?W_C@@O?O_C_'
(ttp3133
a(S'I?CG?A?O@A?CC?_G@?'
(ttp3134
a(S'I???OA?Y??KQ??O@L?'
(ttp3135
a(S'I???O@?I?A?D@G_@?o'
(ttp3136
a(S'I?CC?@?GD@??O__g?_'
(ttp3137
a(S'I?G?OC?h?AG?CC?_CO'
(ttp3138
a(S'I?G@?G?K?R_@?G?G@O'
(ttp3139
a(S'I?G??E?COCG?OCO_G_'
(ttp3140
a(S'I?C??GG?DD?AGAOC?G'
(ttp3141
a(S'I?G@???COCG?WK?@G_'
(ttp3142
a(S'I?OOOC?_CAAOGG?`@_'
(ttp3143
a(S'I?CC?A_PA?_?GAOSK?'
(ttp3144
a(S'I?_?O@H?@?DA?AcoCG'
(ttp3145
a(S'I@???GPG_?@AO?_HcO'
(ttp3146
a(S'I?CW?C?_CC??G?aP?o'
(ttp3147
a(S'I?_A?CGI?cC?CO?@B?'
(ttp3148
a(S'I?_@?O?eC?C?G_P_OG'
(ttp3149
a(S'I?G??@?__CI?CK?CCO'
(ttp3150
a(S'I@?@?@?CA?@COGeG?G'
(ttp3151
a(S'IA??OA?C?OGG@C@C?G'
(ttp3152
a(S'IAC@?G?C?C??S_`W?G'
(ttp3153
a(S'I?G@_A?__@@@O?O`o_'
(ttp3154
a(S'I??A???O_gG?W?OPU?'
(ttp3155
a(S'I???_???_P@_OG_WOO'
(ttp3156
a(S'I?C@?G?c_K??G?Pc@G'
(ttp3157
a(S'I?G?_C?o_C@@??OGE?'
(ttp3158
a(S'I?G?OIA@?@G?O_OC@?'
(ttp3159
a(S'I?_@?A?oOGA@??O@Y?'
(ttp3160
a(S'I?C?OC?H?GEI?A?@D?'
(ttp3161
a(S'I?C?_G?OAOE????_@?'
(ttp3162
a(S'I?CC?GAO??A?W?O@@_'
(ttp3163
a(S'I?OA?A?C?_@A?C?WAO'
(ttp3164
a(S'I?CA?C@C??_?GO_@?o'
(ttp3165
a(S'I?O?_O??CO??CA?gCW'
(ttp3166
a(S'I?CO_G??@?I?CC?_GO'
(ttp3167
a(S'I?G@?GB??O@?GCA_Co'
(ttp3168
a(S'I?G?OC?COAAB?A???O'
(ttp3169
a(S'I?C??C?H??KE??OOGG'
(ttp3170
a(S'I?C@?A@?_C?C??_HAO'
(ttp3171
a(S'I?_?OC_@A@??GCOcGG'
(ttp3172
a(S'I?K?OO?`O?A?EEACAO'
(ttp3173
a(S'I?O??A?oAa@?C?SOE?'
(ttp3174
a(S'I???oO_CQ?A?DEACAO'
(ttp3175
a(S'I?Ca?O?KCc?A?Q?C?O'
(ttp3176
a(S'I?C??C?Q?a?CCC_GQ?'
(ttp3177
a(S'I????@?__G?@DG@C?G'
(ttp3178
a(S'IAG????W?ACP??O@C_'
(ttp3179
a(S'IB?????G??@OGAA@CO'
(ttp3180
a(S'I??????D?OAA?oGC@_'
(ttp3181
a(S'I?C__??GA_@@OWOC?_'
(ttp3182
a(S'I?C?_G?O`@GAGCO???'
(ttp3183
a(S'I?C?_A?C@_HI?S?G?O'
(ttp3184
a(S'I?C??@?_BC?@G_``?O'
(ttp3185
a(S'I?C?O@?G?_?I@O?S?_'
(ttp3186
a(S'I?_?OA?o??C?CG_PK?'
(ttp3187
a(S'I?CA?C??AOE?G?P_@?'
(ttp3188
a(S'IA?????O?aECCA?@P?'
(ttp3189
a(S'I?G????CC@??Wg?@O_'
(ttp3190
a(S'I???_@?`@GC?C?QgDG'
(ttp3191
a(S'IA???A?oACE?C?O@L?'
(ttp3192
a(S'IA??_@?GAC@GOOOS?g'
(ttp3193
a(S'I?O?O@?C_@?AO?cW?G'
(ttp3194
a(S'I???_??COGCJ?A_@OO'
(ttp3195
a(S'I????@?CA?C@@OI_?G'
(ttp3196
a(S'I?C???A?A@?GH?_@@O'
(ttp3197
a(S'I?G?OC?WC@?ICA????'
(ttp3198
a(S'I@?A?CAC?_????PK@G'
(ttp3199
a(S'I?C@@G??COG?G?Oc?G'
(ttp3200
a(S'I?C@??A?Ca?CC?OK?G'
(ttp3201
a(S'I?C@???WO?`GC??W?G'
(ttp3202
a(S'IAGCOA?O???G??OCC_'
(ttp3203
a(S'I?CO_???@?_GO?oW??'
(ttp3204
a(S'I?G_O??OA?e@??O?C_'
(ttp3205
a(S'I?Oc???C?`_?GA?D@_'
(ttp3206
a(S'I?GOO@??@?_G?A_?@?'
(ttp3207
a(S'ICC??A??@?_O?A_@H?'
(ttp3208
a(S'I???OAAQ?@?G@?_P?o'
(ttp3209
a(S'I?G?????CP?IO?OCOg'
(ttp3210
a(S'I?GAO??C??AA?o_@@O'
(ttp3211
a(S'I?G??@?CC?GAD_`??O'
(ttp3212
a(S'I?CO_???@?CHCA_?A?'
(ttp3213
a(S'I@??_?G_S?CACAg@OO'
(ttp3214
a(S'IAC@?A?_?A?@O?sGC?'
(ttp3215
a(S'I?C?_C_?O__OO?OGH?'
(ttp3216
a(S'I?_?`O?D?OH?OK@_GW'
(ttp3217
a(S'I???_AAA?S?CO?OSG_'
(ttp3218
a(S'I?C@?O?_o__A??_H@O'
(ttp3219
a(S'I?C?_??__`_?OCOC?_'
(ttp3220
a(S'I@_??@?G????D__`CO'
(ttp3221
a(S'I??@??@?a?@?SGcWcG'
(ttp3222
a(S'I?O??C?CA?I?C?b?R?'
(ttp3223
a(S'I?O??@?CA?a@COEG?W'
(ttp3224
a(S'I?CA?A?OOC_?GC?DG_'
(ttp3225
a(S'IA??_G?C@C@?CQAO?W'
(ttp3226
a(S'IA??OG?C@C?@GOa@?o'
(ttp3227
a(S'IAG?O@?O?A?D??SC?g'
(ttp3228
a(S'I?C?_??Oa@G?SK_???'
(ttp3229
a(S'I?_G?A?C??C@?Q_PIO'
(ttp3230
a(S'I?G?OC?OO?aH?AO???'
(ttp3231
a(S'IA??_C?O?`?H??O@O_'
(ttp3232
a(S'I?G?O??O@A?@C?PGAG'
(ttp3233
a(S'I?C??@?T?A?AO?`W?G'
(ttp3234
a(S'IA??PC?_?OHGHC?o?W'
(ttp3235
a(S'I?GA?G?OOSC@GG?@g?'
(ttp3236
a(S'I?O?_@@@A?@?CAAoCW'
(ttp3237
a(S'I???__GQ?SG?O?oOC_'
(ttp3238
a(S'I?G?_??CA?cK??OCP?'
(ttp3239
a(S'I?C?@AOOA_`@?c?C?_'
(ttp3240
a(S'I?G????CCCCE?A_@GO'
(ttp3241
a(S'I?OA@@?_?aA@?G?DB?'
(ttp3242
a(S'I???@?_D@AG?S?_g@G'
(ttp3243
a(S'I?G@?B?__@?AOCO?O_'
(ttp3244
a(S'I?C?OOO___g?OCWCCG'
(ttp3245
a(S'I?_?POA@_?A?OCOc?g'
(ttp3246
a(S'I?_A_@@?c?@?P?PCAG'
(ttp3247
a(S'I?GA?`@?@?@?Cc@G?W'
(ttp3248
a(S'I?C?_G?_OQC@?G_@OO'
(ttp3249
a(S'I?CC?CA??OGGGAOsCG'
(ttp3250
a(S'I@???A?O@?_SG?O@G_'
(ttp3251
a(S'I?G?_C@`CG@GCA?_EO'
(ttp3252
a(S'I?CA?C?o_?a?G?S@D?'
(ttp3253
a(S'I?C?_CA?_@AOO?O@@_'
(ttp3254
a(S'I??A?G?OOQC?C?goOG'
(ttp3255
a(S'I?_??OOC`@AA?A_`@O'
(ttp3256
a(S'I?G?_??C@?gK??OCP?'
(ttp3257
a(S'I????@PA?OE@CIBG?W'
(ttp3258
a(S'I?_A?C?IOE??C?Oc@G'
(ttp3259
a(S'I?G?__G@?@C_O?O@@_'
(ttp3260
a(S'I?_?_C?o_k??CG?@D?'
(ttp3261
a(S'I?G??G?p@I??C?_`D?'
(ttp3262
a(S'I?CO???G@?_GO?oW??'
(ttp3263
a(S'IA?@?@?GCB??GA?D@_'
(ttp3264
a(S'I?GO?@?C@?_G?A_?@?'
(ttp3265
a(S'I?G_?@?OA?e@??O?C_'
(ttp3266
a(S'IC???A?C@?_O?A_@H?'
(ttp3267
a(S'I?O????GOA@BO?sG__'
(ttp3268
a(S'I?C@@C@??a_oGA?PA_'
(ttp3269
a(S'I@???COEA@A?GAOcH?'
(ttp3270
a(S'I???_E@?OC?AO?O@g_'
(ttp3271
a(S'IAG?O@?W?A?@O?S?C_'
(ttp3272
a(S'I?CO?A?GA_@@OgOC?_'
(ttp3273
a(S'I???O@?O@Q?cGAC_@G'
(ttp3274
a(S'I@C??@?O@O?SGAA_?G'
(ttp3275
a(S'I??A???O_c_?W?OPc_'
(ttp3276
a(S'IC???A?_AOc@@_OC@G'
(ttp3277
a(S'I?C?OA?GC@?_HG?@Go'
(ttp3278
a(S'I????A?O@c?cCA?PI?'
(ttp3279
a(S'I????OOa`?`?GC`@?o'
(ttp3280
a(S'I??@?G?OOI@@GG_@O_'
(ttp3281
a(S'I?O??G?GOU@@?G?o?w'
(ttp3282
a(S'I?G??@?G@?aWO?O@D_'
(ttp3283
a(S'I?G??C?p?QG?C?O_DG'
(ttp3284
a(S'I????E?`?W_?W?P@H_'
(ttp3285
a(S'I?G?OC?p??g?C?o?L?'
(ttp3286
a(S'I?G?O@?O_CEE??O?@_'
(ttp3287
a(S'I@O??@???_?WG?@@Ao'
(ttp3288
a(S'I??C?SOIA?@?W?O`K_'
(ttp3289
a(S'I??A?G_CPCC?G?_PI?'
(ttp3290
a(S'I?O??@???`c@CAAGOG'
(ttp3291
a(S'I@???@?O@O@S??ag?G'
(ttp3292
a(S'IA???@?G?QAO?OOK@?'
(ttp3293
a(S'I?GA?C?o_G_?C?SOCG'
(ttp3294
a(S'I?G@?@?oSC@I?G?O?g'
(ttp3295
a(S'I???OC?X?A?aGCO@C_'
(ttp3296
a(S'I?G??G?p@A?@C?O_CG'
(ttp3297
a(S'I?C??H?PA?a@??QCCG'
(ttp3298
a(S'I?_?_@?Oc@@?CC?KAG'
(ttp3299
a(S'I?C??C?_?U??GK`@?o'
(ttp3300
a(S'I?CA?OGH@@CAG?O@@_'
(ttp3301
a(S'IA??_@?O?S?@?AQCCG'
(ttp3302
a(S'I@?A?C?C?_GA?Oa@OO'
(ttp3303
a(S'I?_@?@?d??`?Gc@O?W'
(ttp3304
a(S'I?O?OA?__C?@O?p___'
(ttp3305
a(S'I@C??C?G@O?WGA?_C?'
(ttp3306
a(S'I???OOOa@?a?GE?DK?'
(ttp3307
a(S'I??A?AA?C@C?C_WKOG'
(ttp3308
a(S'I?G?O??__cG?CK?CCO'
(ttp3309
a(S'I???_CA?C@CgG?O@O_'
(ttp3310
a(S'I?GA?C_?OOc?CAaOP?'
(ttp3311
a(S'I?G?OO@AA?C?W_S_C_'
(ttp3312
a(S'I?_@@@???_M???O@B?'
(ttp3313
a(S'I?G_O??C?O_@GQ???O'
(ttp3314
a(S'I?GOO????QCAO?o?@_'
(ttp3315
a(S'IAGCO@?O???GG?OCC_'
(ttp3316
a(S'ICCA?@??@?A@?CQKAG'
(ttp3317
a(S'IAC??@?G?C?@Ga?@CO'
(ttp3318
a(S'I????@?P?a?_OC_HE?'
(ttp3319
a(S'I????@?G_gCOCA_PEO'
(ttp3320
a(S'I????A@?OG@O?G_HGO'
(ttp3321
a(S'I?C?OG?`?aC@??`@AO'
(ttp3322
a(S'I?CC?@A_?__?Ka@S?O'
(ttp3323
a(S'I???_@AA@@@W?C_@?o'
(ttp3324
a(S'I???_G?X?QC@??W_C_'
(ttp3325
a(S'I??@?A?COE?aO?OO?g'
(ttp3326
a(S'I?G?O??W@A@Q?A?OC?'
(ttp3327
a(S'I?C@??A@?@?_G?_PGo'
(ttp3328
a(S'I?O?_????OCE??a@P_'
(ttp3329
a(S'I?C??A?C?OcW??PK@G'
(ttp3330
a(S'I?G?OC?OCA?_C?SgCG'
(ttp3331
a(S'IA???C?G?c@@O?Q?C_'
(ttp3332
a(S'I?GG?C?C?PG?OC_GG?'
(ttp3333
a(S'I?C?OA?Q?@AOOC?GI?'
(ttp3334
a(S'IAC?OC?G?@COGA?OG?'
(ttp3335
a(S'I?_??@P?PA_?GC_`?o'
(ttp3336
a(S'I?C??A?P@?_CC?_WG?'
(ttp3337
a(S'I?_C?O?q??A?D?QCEG'
(ttp3338
a(S'I?C?_GA@?@C?W_O@@_'
(ttp3339
a(S'I@???G@A?_C?WOQ@Q_'
(ttp3340
a(S'I?G??@?P?Q?AW?O?D_'
(ttp3341
a(S'I?G??B?O_CCB??O?C_'
(ttp3342
a(S'I?C??C?L@`?J?A?G@?'
(ttp3343
a(S'I?CG_????@CGW?O@@_'
(ttp3344
a(S'I?GG?COC@A@D?A?O?g'
(ttp3345
a(S'IC??OA?OB?a@?C?@?_'
(ttp3346
a(S'I?O?_@?_?_@B?O?G?O'
(ttp3347
a(S'I?C@?G?G?OCC??Oo?G'
(ttp3348
a(S'I?CA???G?a@C?C?CA?'
(ttp3349
a(S'I?O?O@?_AQ??OOc_@G'
(ttp3350
a(S'I?_?_CG@AH??C?Oc@G'
(ttp3351
a(S'I?Oc?_@_?O@?S?_gSG'
(ttp3352
a(S'I?C@?_???_DDGA?@?_'
(ttp3353
a(S'I?G??A?C@?_KOC?@O_'
(ttp3354
a(S'IA???@???_GCCc_?OO'
(ttp3355
a(S'I?G??@A?_`COO?O?@_'
(ttp3356
a(S'I?G?OC?p?_g?C?O?L?'
(ttp3357
a(S'I?G??G?_PC?@C?OCIG'
(ttp3358
a(S'I?GA?C?o??B@?GS?K?'
(ttp3359
a(S'I??A?GOA?PC?GG_PGO'
(ttp3360
a(S'I???OC?I?c?AO?OWK?'
(ttp3361
a(S'I???OA?P?aCa??OOC_'
(ttp3362
a(S'I?CG?@?O@AACC?_G@?'
(ttp3363
a(S'I?CA?A??@C?@CQ_`GO'
(ttp3364
a(S'I???_@A?CG@O?OaG?O'
(ttp3365
a(S'I?G??C??OSG?WCO_G_'
(ttp3366
a(S'I???_??C`@CA??_Hp?'
(ttp3367
a(S'I?GC?G@?O?C?WGQ@o_'
(ttp3368
a(S'ICG??@??A?_OCCa??O'
(ttp3369
a(S'IAG?_E?_?@@@O?O@W_'
(ttp3370
a(S'I?G@?G?_PC@?KC??I?'
(ttp3371
a(S'I?C?OG@C`?CB?Ad??G'
(ttp3372
a(S'I??@?G?i?C@ACC_@KO'
(ttp3373
a(S'I?C?_@?GA?I?Cs?CAO'
(ttp3374
a(S'I?C??A?G@?ES??OHJ?'
(ttp3375
a(S'I?C??A?C@?EW??PGB?'
(ttp3376
a(S'I?O?_G?GE@??S??@I?'
(ttp3377
a(S'I?G?OG?O?OH?GKB??O'
(ttp3378
a(S'I?G??C?_BC??GCP@I?'
(ttp3379
a(S'I?G?_E?_O?`@O?O@W_'
(ttp3380
a(S'I?O?_@?C_@G?S??GBG'
(ttp3381
a(S'I?C@?A?__P@?GA?s?G'
(ttp3382
a(S'I?C?_C?__PA?OK???_'
(ttp3383
a(S'I?C?_@?G@?_K?COK?G'
(ttp3384
a(S'I?C??G?O_C@?GAOsCG'
(ttp3385
a(S'I?GG?G?O?P@?OcCO?g'
(ttp3386
a(S'I?C??A?OOCC@??_HI?'
(ttp3387
a(S'I?O??G@@?O@AGCa@Co'
(ttp3388
a(S'I?C?_G?c@E?@??PCAG'
(ttp3389
a(S'I??A?C?o_cA@??O@e?'
(ttp3390
a(S'IAG?_C?_?@C?C?OGX?'
(ttp3391
a(S'I?O??@@@?_@ACAAWCW'
(ttp3392
a(S'I?G@???_c@@AO?OO?g'
(ttp3393
a(S'I?C?OG?PAa?@??`@AO'
(ttp3394
a(S'I????A?Q?S?AGc?@C_'
(ttp3395
a(S'I?G??A@@??cGO?O@C_'
(ttp3396
a(S'I?C@???CA?H?OgdO?G'
(ttp3397
a(S'I?G?_G?P??g?C?OCL?'
(ttp3398
a(S'I?G?_@?P?A?ACA?CD?'
(ttp3399
a(S'I?G??A?O_?cO?AO@D?'
(ttp3400
a(S'I?G?OG?O?Q?@?I`@?O'
(ttp3401
a(S'I?C??@?G?Q?@HO?c?_'
(ttp3402
a(S'IA??OC?_C@??G?_P?o'
(ttp3403
a(S'I?G?O@?O_cCE??O?@_'
(ttp3404
a(S'I?OG?O?G?OACC?OK?G'
(ttp3405
a(S'I?O?PG???_@??GO[?G'
(ttp3406
a(S'I?C?_CG@??cCG?O@@_'
(ttp3407
a(S'I???O@?O_GAB??SKCG'
(ttp3408
a(S'I?C?_C?iAE??C?_PEO'
(ttp3409
a(S'I?O??@?COCA@CAAg?W'
(ttp3410
a(S'I???O@?I?CAI?Q?@@O'
(ttp3411
a(S'I??@?A?OOCA_??OHJ?'
(ttp3412
a(S'I?C?_??O_G?E?C_HOO'
(ttp3413
a(S'I?_?OC?G?OCC??Ow?G'
(ttp3414
a(S'I?C??A?P?a@E?A?O?O'
(ttp3415
a(S'I?O?_???OOc?CA?GHG'
(ttp3416
a(S'I?O?_@??Q__?CA?O@O'
(ttp3417
a(S'I?O?_@AGC@??CA?G@O'
(ttp3418
a(S'I?C????O_`@QOC?G?G'
(ttp3419
a(S'I?G??@?OOG@I??SS?g'
(ttp3420
a(S'I??A_C?_OA_?CC_@oO'
(ttp3421
a(S'I?C?OA?O@C?b??`@G_'
(ttp3422
a(S'IAO@?I@???I?C?P@X?'
(ttp3423
a(S'I?C?_G@@O?C@CIGCGG'
(ttp3424
a(S'IAC@???C?AA@O?`GO?'
(ttp3425
a(S'I?O??G?_CSA?S?@_GG'
(ttp3426
a(S'I?O?_G?gCAC?C??@E?'
(ttp3427
a(S'I?O??A?D?ACe??OO?g'
(ttp3428
a(S'I?C??D?COcG?OCaGA?'
(ttp3429
a(S'I?G??@?O?C@@?GQCCg'
(ttp3430
a(S'I?G????CA?COC_`?B?'
(ttp3431
a(S'I????@?W_gC@CAC@E?'
(ttp3432
a(S'I????__D@A?CG?_P?o'
(ttp3433
a(S'I?C??@?S_CC@GA@_?G'
(ttp3434
a(S'I?G?OC?`?AI?CC??EO'
(ttp3435
a(S'I?C@?A?GOQG?W?Oo?_'
(ttp3436
a(S'I?O?O@?_`c?@G?@@A_'
(ttp3437
a(S'I?G??@_@?PGAOCQC?g'
(ttp3438
a(S'I@??_A?O?O@K?G_HOO'
(ttp3439
a(S'I@??OA@H@?GCC_OKAG'
(ttp3440
a(S'IAG?O@?_?AC?WOS?@_'
(ttp3441
a(S'I?G?OC?p?aG?C?O?F?'
(ttp3442
a(S'I?G?O@_@A@G?OCQCAG'
(ttp3443
a(S'I?O@?A?_CQ??CA@_OG'
(ttp3444
a(S'I@??OP?a??COGg`@?o'
(ttp3445
a(S'I??A?A?D@ACEA?oo@_'
(ttp3446
a(S'I?C@?O?CA?@COG_W?G'
(ttp3447
a(S'I?G??@?`?Ac?W?P@@_'
(ttp3448
a(S'I?Oa?_@D?GA?CC@KAG'
(ttp3449
a(S'I?_?O??e?CAAOOa@@O'
(ttp3450
a(S'I?O??CA@?`@GG?OO?_'
(ttp3451
a(S'I?G??C?hc?K?CGO@D?'
(ttp3452
a(S'I?C?@AOOAOa@?a?C@?'
(ttp3453
a(S'I?G??@?C@??SOCQ?Ag'
(ttp3454
a(S'I????@?C?_KS?GYC@G'
(ttp3455
a(S'I?O??_?CCCGKG?_P?o'
(ttp3456
a(S'I?G?O??_AAc@??OCCG'
(ttp3457
a(S'I?C?_???@AC@?O_hO?'
(ttp3458
a(S'I?O?O@?__?g?G?PS?G'
(ttp3459
a(S'I?C??@?G?a?@HG?DC_'
(ttp3460
a(S'I???OC_?Aa@S?C_@AO'
(ttp3461
a(S'I?G?DC@?BA??C?OGBG'
(ttp3462
a(S'I????@?H??HEA__O?O'
(ttp3463
a(S'I??@?A?SOC?aGC?@G_'
(ttp3464
a(S'I?CW?????_@GCA?S?G'
(ttp3465
a(S'I?O__??_?P@@?A?o?W'
(ttp3466
a(S'IB???G?G??C?COSKGG'
(ttp3467
a(S'I?C??AA?_@?_@A_@@O'
(ttp3468
a(S'I?C?O@A?A@?OA?AS?G'
(ttp3469
a(S'IA??OG?CACA?OOa@@O'
(ttp3470
a(S'I?G?O@?__@AAOCOC?_'
(ttp3471
a(S'I?CO?G?O?_K?CG?OGG'
(ttp3472
a(S'I?G?OE?a?@@@O?S_G_'
(ttp3473
a(S'I?CO?G?O?_K?GG?PG?'
(ttp3474
a(S'IAG?OE?_?@@@O?S?G_'
(ttp3475
a(S'I?_A?AOA@B??C?OSAG'
(ttp3476
a(S'I?C?O@?H?A?`GW?C?_'
(ttp3477
a(S'I?C??@?G?aCQO?_HD?'
(ttp3478
a(S'I?C@???C@?GGG?Po?G'
(ttp3479
a(S'I?O?OC?C?Og?C?bG@G'
(ttp3480
a(S'I?G??@?CC?GAD_@C?G'
(ttp3481
a(S'I?C@?@?O?_GKGC?PA_'
(ttp3482
a(S'I?C?_G?_OA??OCOCAG'
(ttp3483
a(S'I?O?_@?COCG?CIAO?W'
(ttp3484
a(S'I?G?_C?gBC??C?OPm?'
(ttp3485
a(S'I?GA?C?_PC??G?OPi?'
(ttp3486
a(S'I?_??@@?__E?OOS@B_'
(ttp3487
a(S'I?C??G?P?Ok?G?qOD?'
(ttp3488
a(S'I???O??_@K??GaPCBG'
(ttp3489
a(S'IAC?OA?G??GC@C?CG?'
(ttp3490
a(S'I?C????H?ACCO?ow??'
(ttp3491
a(S'I?C??A?KAC?C?k?C??'
(ttp3492
a(S'I?O_???CA?ASGC?d@_'
(ttp3493
a(S'I?C????H?A?AIA?@DO'
(ttp3494
a(S'I?G?OG?O`CG?C?o?F?'
(ttp3495
a(S'IAO??????C@@G?a@Co'
(ttp3496
a(S'I?CG_?????HGGS?C??'
(ttp3497
a(S'I?C@????@`@@G?A@A_'
(ttp3498
a(S'I??????A?C@AGCa@Co'
(ttp3499
a(S'I?CC@C??A?@?SG_W?G'
(ttp3500
a(S'I?C??A?C?OcWO?`G@?'
(ttp3501
a(S'I?CO?C?G?Og?O?qG@?'
(ttp3502
a(S'I????G?PAA@?G?OscG'
(ttp3503
a(S'I?C??A?C@?_K?CSK?G'
(ttp3504
a(S'I?C@????@P?@C?ag?G'
(ttp3505
a(S'I?G??A?C??cK??OCP_'
(ttp3506
a(S'I?C?_@???`?@Gg?@?o'
(ttp3507
a(S'I?O?O@?__G??SCcgCG'
(ttp3508
a(S'I?G??@?P?G@IO?PO?g'
(ttp3509
a(S'I?OO?A?GB?G?C?OOI?'
(ttp3510
a(S'I?OA?E@__O@?CG?oSG'
(ttp3511
a(S'I?G?OC?gBG??C?SOM?'
(ttp3512
a(S'I@?@?A?O?OAW??O_C_'
(ttp3513
a(S'I@G?OG?WB???C?S?M?'
(ttp3514
a(S'I?_@?@?G?_CC???PA_'
(ttp3515
a(S'I?C????G?a?@@G?HCO'
(ttp3516
a(S'I?C?OG?p?A?@GG`@?O'
(ttp3517
a(S'I?_A_@??@AC?CO_oo?'
(ttp3518
a(S'I?C??@?P?a?E?C_H?O'
(ttp3519
a(S'I?G????COA@_OC_gOO'
(ttp3520
a(S'I?C??@?G?_GG@K?CC?'
(ttp3521
a(S'I?G?O??GC@?GO?OCA_'
(ttp3522
a(S'I??@?C?GOC?aC?OWGG'
(ttp3523
a(S'I?G?OGA@?@G?OCa@_O'
(ttp3524
a(S'I@?C?CO?Q?@?GAOcgG'
(ttp3525
a(S'I?Ca?O?oCc?A??`@?O'
(ttp3526
a(S'I?C?_A?_CA?OCW?C??'
(ttp3527
a(S'I???OA?Q?@@OGg?O?_'
(ttp3528
a(S'I?C@?@?GA?_@GOQC?G'
(ttp3529
a(S'I?C??A?C@?DY?A@O?G'
(ttp3530
a(S'I??COG?qC?A?C?ScKG'
(ttp3531
a(S'I?C?_??G@?GG?S?@A?'
(ttp3532
a(S'I???OC?a?Ca?W?P@H_'
(ttp3533
a(S'I????A?GOC@`?g?@?o'
(ttp3534
a(S'I?G??@?O_@?P??_HaO'
(ttp3535
a(S'I?OO?@?CA?H?GGAS?G'
(ttp3536
a(S'I?CA@??C@?a@?CQK?G'
(ttp3537
a(S'I?G?_@?o`C@@??OGE?'
(ttp3538
a(S'I?Co?A?OAOc@??cG@?'
(ttp3539
a(S'I???O????a?@B?`@Ao'
(ttp3540
a(S'I???_EOA@?_CC?OGH?'
(ttp3541
a(S'I?O_?O@C?_GSGG?DA_'
(ttp3542
a(S'I???_EA@?GCCC?OGH?'
(ttp3543
a(S'I?G@?@?_OA??O?o_P_'
(ttp3544
a(S'IAO@?@?_?AG?C?cOCG'
(ttp3545
a(S'I@?G?A?CE??CP_OC?g'
(ttp3546
a(S'I?C??A?CC?CAD_@G?G'
(ttp3547
a(S'I???OC?G@c?d??OGI?'
(ttp3548
a(S'I?C?OO?_D?A?LAB_?O'
(ttp3549
a(S'I?C?OC?OOA@AGACO?G'
(ttp3550
a(S'I?C????GCQ?C@G?K?G'
(ttp3551
a(S'I?C?_???@AG?OS_`O_'
(ttp3552
a(S'I?C?`??C@_CB?a?G@?'
(ttp3553
a(S'I?GOOA??@A?@CA?CA?'
(ttp3554
a(S'I?C@?c?_?a@?CC?WCG'
(ttp3555
a(S'IAO?OO?_??@?S?cWKG'
(ttp3556
a(S'I???_G?`@@??CCg`GO'
(ttp3557
a(S'I?G?O@?W_G?AO?SOC_'
(ttp3558
a(S'IAC?_??O?@?H??_HOO'
(ttp3559
a(S'I?G??G?OOsG?CK??GO'
(ttp3560
a(S'I@?O?A?OCQ?OCA?g?W'
(ttp3561
a(S'I??A?G_O_@@?GC_`OO'
(ttp3562
a(S'I?G@???__P_@O?o?O_'
(ttp3563
a(S'I?GOO???@A@@W?O?A_'
(ttp3564
a(S'I?C?????O?DP?__g??'
(ttp3565
a(S'I?C?????OcBIOC?G?O'
(ttp3566
a(S'I????@?CC?GADOIC?G'
(ttp3567
a(S'I????A?Q@a?CCA?PQ?'
(ttp3568
a(S'I??C?GGR?_`C??OS?g'
(ttp3569
a(S'I?G?_??CAB_@O?OCO_'
(ttp3570
a(S'I?O?_????Pg?S?aGP?'
(ttp3571
a(S'I?C?OC?P?`?GCC_GA?'
(ttp3572
a(S'I?C?`??OB?a@?c?@?_'
(ttp3573
a(S'I?C?_??_`@_?OC_@?_'
(ttp3574
a(S'I?CG???G@@?GO?OW?G'
(ttp3575
a(S'I?G??@?O_C_D?A_@_O'
(ttp3576
a(S'I?C?_D??Q?_?OCaGO?'
(ttp3577
a(S'I?O??D?DA@_?C?aG@G'
(ttp3578
a(S'I?GC?@?`_?c?GAPC`?'
(ttp3579
a(S'I?OC@@??A???G?_p?o'
(ttp3580
a(S'I?G@???G?OGGCG_@DO'
(ttp3581
a(S'I?O@?A??A?a@C?PGW?'
(ttp3582
a(S'I?C?_C?_AA??SC?_CG'
(ttp3583
a(S'I?G?O@?G?Q?@GY?C?O'
(ttp3584
a(S'I?C?_??C?_GG?[?@?O'
(ttp3585
a(S'IAG?OC?_?A@?CSCG?W'
(ttp3586
a(S'IA_?OG?C?CA?OOa@@O'
(ttp3587
a(S'I????@??A?COA?QoCG'
(ttp3588
a(S'I?C?_??_OQI?OK?C??'
(ttp3589
a(S'I???_@???QCoO?_gD?'
(ttp3590
a(S'I?_P?????QA@?G_H@O'
(ttp3591
a(S'I?O??G@@??`?S?hGGG'
(ttp3592
a(S'I???O@?Q?C?IGC`@?o'
(ttp3593
a(S'I?GG???_A@@?OC_@GO'
(ttp3594
a(S'IA???@?G?a?P?Q?@?O'
(ttp3595
a(S'I??????_?_C_?WC@H?'
(ttp3596
a(S'I?G?O@?O_CCCCA_?B?'
(ttp3597
a(S'I@?G?@?G@??WGQ?D@_'
(ttp3598
a(S'I?GC?A?O?P_?O_OG@_'
(ttp3599
a(S'I?_?POA?_?AOOCOc?g'
(ttp3600
a(S'I?G@???_CA@AGC@@?o'
(ttp3601
a(S'I?C?OA?H??GCAC?CI?'
(ttp3602
a(S'IA??O??C?c?GGO_@@o'
(ttp3603
a(S'I?G??G?OBEA?C?O@F?'
(ttp3604
a(S'I?C??A?GOA?QAA?@@O'
(ttp3605
a(S'I????A?GOC@GAK?@?o'
(ttp3606
a(S'I?OG???C?QG?SC`G?G'
(ttp3607
a(S'I?C??C?G@@?WG?OPA_'
(ttp3608
a(S'I?O_OG@C?OAQ?C@c?g'
(ttp3609
a(S'I?G@???__P@B?C?C?g'
(ttp3610
a(S'I?C??@?H@ACA??_HD?'
(ttp3611
a(S'I@??OG?OoOCQA?_o?g'
(ttp3612
a(S'I?GC?G@?Q?@?OGa@oO'
(ttp3613
a(S'I?G??A?C@?`K?C?CO_'
(ttp3614
a(S'I?G?OC???oGEOC?G@?'
(ttp3615
a(S'I?G?OGB??_@?O?OCC_'
(ttp3616
a(S'I?O?`@??@O@B?AAO?g'
(ttp3617
a(S'IA??_C?C@@GWCC?G@G'
(ttp3618
a(S'I@?@?G@__?@?GGPCoG'
(ttp3619
a(S'I?C@?C?GCA?CC?_GA?'
(ttp3620
a(S'I?C??@G?C?AC?GCG?O'
(ttp3621
a(S'I????@?OC@@GA?c_?_'
(ttp3622
a(S'I?GC@o?O?O??Ca?G?W'
(ttp3623
a(S'I?GC?C@_B?@?C?o?]?'
(ttp3624
a(S'I????@?GCGACCg?GOO'
(ttp3625
a(S'I????A?G?T?BA_OC?_'
(ttp3626
a(S'I?C??AA?A@?OG_OC@?'
(ttp3627
a(S'I????OA??_@G?OCG_O'
(ttp3628
a(S'I?C@???__P@@O?cg?G'
(ttp3629
a(S'I?C??@?G_@?OCK?K?G'
(ttp3630
a(S'I?C?_???A_DH?W????'
(ttp3631
a(S'I?GO???CAAC?O?oWA?'
(ttp3632
a(S'IA??O@?G@A?OO?_@D_'
(ttp3633
a(S'I?C@??A?A?ACGCAD@_'
(ttp3634
a(S'I?G?O_??@?BD?A???O'
(ttp3635
a(S'I?C?????O?`OGc_@?o'
(ttp3636
a(S'I??A?C?a@cA@??O@M?'
(ttp3637
a(S'I?G?O@?O@aAS?A?@B?'
(ttp3638
a(S'I?C?_C?P?A?CCC_GA?'
(ttp3639
a(S'I@??O@@a@?_OG_`@?o'
(ttp3640
a(S'I????A?X?Q@AO?WOC_'
(ttp3641
a(S'I?G?_??C@?_KO?OOO_'
(ttp3642
a(S'I?O?_@?S__@D?A?OA_'
(ttp3643
a(S'I?O?_@?C_@?AW??@@_'
(ttp3644
a(S'I?GO?@?C@A?A?E_@?O'
(ttp3645
a(S'I?O?_@??@_HE???O??'
(ttp3646
a(S'I???O@?_@G?O?c@_?G'
(ttp3647
a(S'I?C??C?P?`@GGA?OA?'
(ttp3648
a(S'I?C?OA?OOCAI??_H@O'
(ttp3649
a(S'I@G?_G?WB???C?O@]?'
(ttp3650
a(S'I?G?O??CCACE??OC?g'
(ttp3651
a(S'I?G??A?X?Q@AO?OOC_'
(ttp3652
a(S'I??A?A?o@g??C?OP]?'
(ttp3653
a(S'I?O?_G??OOk?C???HG'
(ttp3654
a(S'I@?G???C?OAGGO_@?o'
(ttp3655
a(S'I???OA?X??c_??OHL?'
(ttp3656
a(S'I?G?OC??OQIAOCO??_'
(ttp3657
a(S'I?O?_???Q?c?C?OGHG'
(ttp3658
a(S'I?CG?????_HGGS?C??'
(ttp3659
a(S'I?C????@?AAACCPK?G'
(ttp3660
a(S'I?C?_G?OAOD???_o?G'
(ttp3661
a(S'I?G@????OSIAOCO?G_'
(ttp3662
a(S'I?C?_C??@A?@CO_gO?'
(ttp3663
a(S'I???O@?O_h?P?A_@AO'
(ttp3664
a(S'I??????G_WACCK?GOO'
(ttp3665
a(S'I?C??A??_?_OGAPC@?'
(ttp3666
a(S'I?O?O??G?RC@CA?g?G'
(ttp3667
a(S'I?G??C?COcG?WCO@I_'
(ttp3668
a(S'I?CH?????@A@C?QK?G'
(ttp3669
a(S'I?G?Oc????BD?A???O'
(ttp3670
a(S'I??A?C__OA@?GC_`OO'
(ttp3671
a(S'I@???CH@?OAAGQ?D__'
(ttp3672
a(S'I?C@?@?O?oAJ?C@G?_'
(ttp3673
a(S'I?O??@?COaC@GAC@A_'
(ttp3674
a(S'I?GA?@?C@??C?CQCAG'
(ttp3675
a(S'I?O?O??G?RG?W?Oo?_'
(ttp3676
a(S'I?G?OC?a?AG?C?ScDG'
(ttp3677
a(S'I?G??@?GBEC?C?OGF?'
(ttp3678
a(S'I?C??@?OA@@OO?ao?G'
(ttp3679
a(S'I?C?_G??@AC@?O_`O_'
(ttp3680
a(S'I?C?_??_a@A?OCOCA?'
(ttp3681
a(S'I?C????O_cCE??_H@?'
(ttp3682
a(S'I?G@?@?__@A@O?O_O_'
(ttp3683
a(S'I?G@???_CAGAC?PC@G'
(ttp3684
a(S'I?O?O@?__cC@G?@@A_'
(ttp3685
a(S'I?O@_@?_AA??GC?`S?'
(ttp3686
a(S'I???OHOAA@C?G?Qc@G'
(ttp3687
a(S'I?G?OC?`O?K?C?qOB?'
(ttp3688
a(S'I?O?_@A_@@??CCAG@G'
(ttp3689
a(S'I?O_?A?CA?K?C?P_@G'
(ttp3690
a(S'I?C?OC?O?@?@CGeG?G'
(ttp3691
a(S'I?C@?A?GOQC@CA?g?G'
(ttp3692
a(S'I?O?_G??O?k?C?O?HG'
(ttp3693
a(S'I???O@_@??a?Wo?@@_'
(ttp3694
a(S'I@??O@?O@?@I??dG?G'
(ttp3695
a(S'I?C??A?C@_CJ?QCG@?'
(ttp3696
a(S'I?C??@?G?OGG@S?c?G'
(ttp3697
a(S'I?CA?C?_PI??G?_`P?'
(ttp3698
a(S'I?G@?G?S?P_?GCA_@_'
(ttp3699
a(S'I?C??CA??a?O?OOW??'
(ttp3700
a(S'I??@???GOQABO?WGO_'
(ttp3701
a(S'I?OA?O@AA?A?C_PCQG'
(ttp3702
a(S'I??C?@__P?AA?ac`@O'
(ttp3703
a(S'I???OA???_GGBC@@AO'
(ttp3704
a(S'I???OC?P??Ia??a@D?'
(ttp3705
a(S'I?_@?@A??`D????W?G'
(ttp3706
a(S'I?O?__?C?P?@W??@?_'
(ttp3707
a(S'I?O?_A?oAa@?C?OOE?'
(ttp3708
a(S'I?O?_@ACC?GCO?_O?_'
(ttp3709
a(S'I@???WOGO?@?KI?CgO'
(ttp3710
a(S'I?_?_E??AC@?OGPOg?'
(ttp3711
a(S'I?CA?C_@?@G?GGOSGG'
(ttp3712
a(S'I?C?_C?OOO_W??_W??'
(ttp3713
a(S'I?_O?A?G?OK?C_Oc@G'
(ttp3714
a(S'I?C?_C?_a`D@?G????'
(ttp3715
a(S'I?C?_G?OAOE?G?O_@?'
(ttp3716
a(S'I?C?_A?G?O@I?S?G?O'
(ttp3717
a(S'I?C?_G?C@?H?GO_o?O'
(ttp3718
a(S'I?G?OG?QAA@@??ScCG'
(ttp3719
a(S'I?C?_???@AG?SO_gP?'
(ttp3720
a(S'I?G?OG?OBC??C?`OI?'
(ttp3721
a(S'I?C??C?COcG?S?aGB?'
(ttp3722
a(S'I?C??C?OOCAG??_HB?'
(ttp3723
a(S'I?G??G?P?R@@?C?g?W'
(ttp3724
a(S'IA???@?G?P?OG__P?o'
(ttp3725
a(S'I???OC???a?oGC@@Ao'
(ttp3726
a(S'I?C?OC?cc?C?GIDO?G'
(ttp3727
a(S'I?G?O@?qACC?G?Q_D?'
(ttp3728
a(S'I?G?OC?G?Q?E?A?C@?'
(ttp3729
a(S'I?G?OGAOCB??CCCG?W'
(ttp3730
a(S'I?O@?@?DAAG?C?`_@G'
(ttp3731
a(S'I???OAAA?`COO?OOG_'
(ttp3732
a(S'I???OA?POIG?W?OPA_'
(ttp3733
a(S'I?C??@?GaDG?GG?S?O'
(ttp3734
a(S'I?O__??CA?K?C?P_@G'
(ttp3735
a(S'I????C?Q?S?AGCa@C_'
(ttp3736
a(S'I???_C?O??Ho?GQOCG'
(ttp3737
a(S'I????GOOOi??CGOK@G'
(ttp3738
a(S'I?C??@O_S?IAOCQC?G'
(ttp3739
a(S'I????A??OG@IOC_HOO'
(ttp3740
a(S'I???_?@?O?`?Q?a@O_'
(ttp3741
a(S'I?O?_@?__C_?S?gGD?'
(ttp3742
a(S'IC?CG@?`@?_GGC_`?o'
(ttp3743
a(S'I?CC?O?qA?A?C_SCEG'
(ttp3744
a(S'I?OC?O?_O?A?WGQ@o_'
(ttp3745
a(S'I?G@?@O?_@?a??_P?o'
(ttp3746
a(S'I?GA?C@?_O@?CI?oCW'
(ttp3747
a(S'I?GA?@?_@???CCQCEG'
(ttp3748
a(S'I?C@???G@A@@??_gC?'
(ttp3749
a(S'I?C@?@?O?_`L?A?O?g'
(ttp3750
a(S'I?O@???GABG?C?c@B?'
(ttp3751
a(S'I???OO@b@?A?W?R@A_'
(ttp3752
a(S'I?C??A?G?OKS?G_PGO'
(ttp3753
a(S'I?O?O??G?ag?W?OPC_'
(ttp3754
a(S'I?C?_@?G@?AK?COCA_'
(ttp3755
a(S'I?C@?@?G?aG?GI?DD?'
(ttp3756
a(S'I?C@???CB?G?C_d_@G'
(ttp3757
a(S'I?G????C?O@I@O?S?g'
(ttp3758
a(S'I?O??@?COCE@CAAGAG'
(ttp3759
a(S'I?O????__Pa@??_HPO'
(ttp3760
a(S'I?G??C?`@@_@G?O@g_'
(ttp3761
a(S'I?G????_`Cg?CC_@cO'
(ttp3762
a(S'IAG?_G?o?AC?C?O@T?'
(ttp3763
a(S'I?GO???C@A@@W?O?A_'
(ttp3764
a(S'I?C?_???CQ??WW???_'
(ttp3765
a(S'I?GH?????@G?C?OKHG'
(ttp3766
a(S'I?C?_???PAg?CC?G?W'
(ttp3767
a(S'I?G?????CP?OO?OcGg'
(ttp3768
a(S'I?G?OA?O@a@S??OOA_'
(ttp3769
a(S'I?C?O@?_`@??OCcg?G'
(ttp3770
a(S'I?C?OA?`?aG?OO_PAO'
(ttp3771
a(S'I?C?_C?_OA_?OC_@?_'
(ttp3772
a(S'I?G@???__@?@W?O@Q_'
(ttp3773
a(S'I???OA??C?GAF?`@GO'
(ttp3774
a(S'I???OA?P?G?DGA?@IO'
(ttp3775
a(S'I?C??A?GOQCOCA_o?O'
(ttp3776
a(S'I?GA?@?I?S?HOOOc?g'
(ttp3777
a(S'I?GA???_@A??CO_poO'
(ttp3778
a(S'I?OA?O?_O?EAG?Q@p?'
(ttp3779
a(S'I????A@COG?OGI?@GO'
(ttp3780
a(S'I?C??A?H??CDAG?@G_'
(ttp3781
a(S'I?OC?a?C??@C??OK?G'
(ttp3782
a(S'I?_@@??CCOA???Ok?G'
(ttp3783
a(S'I?O?`@???O_@W??@?_'
(ttp3784
a(S'I?GG???C?P?GCE_??O'
(ttp3785
a(S'I?C?_A?g?Q?APOOS?_'
(ttp3786
a(S'I?G?OC?__?`?CSCG?W'
(ttp3787
a(S'I?G@C?GEC?I?CQ?`@O'
(ttp3788
a(S'I?_C@@?GB?_O??QC@G'
(ttp3789
a(S'I?O?OO@CB?A?D?BGAG'
(ttp3790
a(S'I@?O_@?OEA??DA?CAG'
(ttp3791
a(S'I?G?OC?gc?K?CGS?D?'
(ttp3792
a(S'I???OCG?A`@o?C_@AO'
(ttp3793
a(S'I?_@??@A@?A@C_PGQG'
(ttp3794
a(S'I?C??@?G_cC@GQ?DA_'
(ttp3795
a(S'I???O@?O_GAQO?`@@_'
(ttp3796
a(S'I?G?O@?OOCAGO?O_@_'
(ttp3797
a(S'I?O?_@?__?g?C?PC@G'
(ttp3798
a(S'I?G??@?OOC@GO?Oo?g'
(ttp3799
a(S'I???OC?GCC?_?GaHCO'
(ttp3800
a(S'I?C??C?GAC?`?Ga@CO'
(ttp3801
a(S'I?C?_??O@?GG?C`@A?'
(ttp3802
a(S'I?C@???G?_CI??OWC?'
(ttp3803
a(S'I?C?_BPAA?A?Ce@CAO'
(ttp3804
a(S'I??A?OGH@@CAG?O@`_'
(ttp3805
a(S'I?O?_??_@`@@?A?@I?'
(ttp3806
a(S'I?G??@?C?`?@?g?GOO'
(ttp3807
a(S'I?O?_??WA?G?C?OOM?'
(ttp3808
a(S'I?C???@?_?aCD?OK?G'
(ttp3809
a(S'I?C??AOOAQcD?A?O?G'
(ttp3810
a(S'I?GA?C?_Oc?@C?OCI?'
(ttp3811
a(S'I??@_G?OOY??GG?PO_'
(ttp3812
a(S'I????A?D?OIa?o?C@?'
(ttp3813
a(S'I??A?A?CoKC@??Oc?g'
(ttp3814
a(S'I?C??C@?OG?AG?e@?o'
(ttp3815
a(S'I??@?O?cA?@?OGdOgG'
(ttp3816
a(S'I?C@?A???aG?OGPOO_'
(ttp3817
a(S'I?G??CA@?PG?O?qG@?'
(ttp3818
a(S'I?G?OG@QC?A?O_S_C_'
(ttp3819
a(S'I???OC?eACC?G?R_@G'
(ttp3820
a(S'I?C??@?G_C?D?I?C?G'
(ttp3821
a(S'I???O@?Q?CAI?A`@@O'
(ttp3822
a(S'I?C?_C??OAG?SK_G??'
(ttp3823
a(S'I?C@?g????E?G?P@@_'
(ttp3824
a(S'I?CA?C@_??a?C?_@CO'
(ttp3825
a(S'I?G?O_??@@C@G?O??_'
(ttp3826
a(S'I?C@????@`?@G?Q@A_'
(ttp3827
a(S'I?_?`_?C@?@?Cc?W?W'
(ttp3828
a(S'I?G@?@@?OA?AO?_@?_'
(ttp3829
a(S'I?C??C?H?OaK?C?G?O'
(ttp3830
a(S'I?C?_G?OAP_?Oc?O?G'
(ttp3831
a(S'I???OG_PA@A?CCQCAG'
(ttp3832
a(S'I????@?_@?a_H_?@D?'
(ttp3833
a(S'I??????CCGAOCW?KGG'
(ttp3834
a(S'I??A?GAA@@A?CCQCOG'
(ttp3835
a(S'I????KOI@@G?G?OPI?'
(ttp3836
a(S'I?G??`OO?`@H?C?G?o'
(ttp3837
a(S'I?C?_@?OOA?Q?C_H?O'
(ttp3838
a(S'I?CA?C?IAcC@??O@M?'
(ttp3839
a(S'I??A?C?i@c?@C?O@M?'
(ttp3840
a(S'I?C????O_g?QO?OWCG'
(ttp3841
a(S'I@C@?@?CA??COGeG?G'
(ttp3842
a(S'IAC?OA?C??GG@C@C?G'
(ttp3843
a(S'IA???A??@@?OCA_@HO'
(ttp3844
a(S'I?G??C??QC??WCO`G_'
(ttp3845
a(S'I?G????o_SG?C?OcDG'
(ttp3846
a(S'I?G??@?`@A??O?ogD?'
(ttp3847
a(S'I?C?_??__@_?OCOC?g'
(ttp3848
a(S'I??????H?Q?DAG_@?o'
(ttp3849
a(S'I?g@?GO?_@??C?_PaO'
(ttp3850
a(S'I??@?G@D??_?S?hGGG'
(ttp3851
a(S'I?G?_G?o_?`@??OCS?'
(ttp3852
a(S'I?O??A?O?Og?GA@@X?'
(ttp3853
a(S'I?C?OC?GQCG?GC?cG?'
(ttp3854
a(S'I?C?_A?CBB_@?C?G?O'
(ttp3855
a(S'I?O?OA@Ga?@?HC?`Co'
(ttp3856
a(S'I?G??@?oCCG?C?QCEG'
(ttp3857
a(S'I?O@?A??A?a?CA@@X?'
(ttp3858
a(S'I?O??@?COCG?S?ag@G'
(ttp3859
a(S'I?G??G?_@?_?CCPCWG'
(ttp3860
a(S'I?C????O@AAQGA?@D?'
(ttp3861
a(S'I?C????O?Q?@GGd@?o'
(ttp3862
a(S'I???OCA?_@G?SCcG_G'
(ttp3863
a(S'I?C??A?OOG?I?C_HOO'
(ttp3864
a(S'I?C?O?@?OC?AI?a@?o'
(ttp3865
a(S'I???OC@?_C?CI?_@A_'
(ttp3866
a(S'I?C?OA@?OA?O?GOK?G'
(ttp3867
a(S'I?O?_??Q?C?AG?Q@D_'
(ttp3868
a(S'I?CA@CA?_c@@AG?S?g'
(ttp3869
a(S'IA??OG?GOAC@@A_PAO'
(ttp3870
a(S'I?_??C?HOG_?W?OPG_'
(ttp3871
a(S'I?C?_C?`C?K?C?q_D?'
(ttp3872
a(S'I??C?G@O`?AAG?S@c_'
(ttp3873
a(S'I???OA?D?GA@OO_HIO'
(ttp3874
a(S'I?C??@?TA?_?OCbG?G'
(ttp3875
a(S'I???OEAA?`@OO?OOG_'
(ttp3876
a(S'I????_@@?g@GCO_G?O'
(ttp3877
a(S'I????S@@A?A?WGP@g_'
(ttp3878
a(S'I???OG?Q?cK?G?Q@F?'
(ttp3879
a(S'I??@?G@ACOA?O_PgOG'
(ttp3880
a(S'I?C@?A?`?a@?SW?W?G'
(ttp3881
a(S'I?C__??O@?_CGAOO??'
(ttp3882
a(S'I?C?_G?OOA?AGCO???'
(ttp3883
a(S'I?C??A?GOC?B?a?D??'
(ttp3884
a(S'I??C?GHA@?@AGAPCOG'
(ttp3885
a(S'I???O??a@CA?WOQ@B_'
(ttp3886
a(S'I???gCA_?S@GCE?oCW'
(ttp3887
a(S'I?CC?AHAA?@?OG`GOO'
(ttp3888
a(S'I@?GO??G??AGCOOK?G'
(ttp3889
a(S'I?O??A@@B?I?C?P@J?'
(ttp3890
a(S'I?G????_OA@@OGOCOg'
(ttp3891
a(S'I?C??A?P?g?E?E?@GO'
(ttp3892
a(S'I?G?O_?_@A@?OS?O?g'
(ttp3893
a(S'I?C?_A?O?W?K?G_HPO'
(ttp3894
a(S'I?G?O@?P?A?C?E_@AO'
(ttp3895
a(S'I?G@?@?__CA?OCOGE?'
(ttp3896
a(S'I?_?O@?CB@??G_c_@O'
(ttp3897
a(S'I?O?_@?_BC??C?ROAG'
(ttp3898
a(S'I?_??I?C@C??CS_`GO'
(ttp3899
a(S'I@?GO@?G??AC?_?C?_'
(ttp3900
a(S'I???_C?I?S?AO?QOC_'
(ttp3901
a(S'IA???@?O?c@@O?R??g'
(ttp3902
a(S'I?G??@?C@C?h?O_`?o'
(ttp3903
a(S'I?C??A?OOC@GCC_g?O'
(ttp3904
a(S'I?C@?G?E?C?AGSa@?o'
(ttp3905
a(S'I?G@?@?_a@?@O?O?QG'
(ttp3906
a(S'I?G?OG?OOA@@?GOK?G'
(ttp3907
a(S'I@?GOC?_??A?G?PCG_'
(ttp3908
a(S'I?G??@QOA?@D?AAO?W'
(ttp3909
a(S'I?OO_C???QG?C?Og@G'
(ttp3910
a(S'IA???@?_?d@@O?QC?g'
(ttp3911
a(S'IA??????@@AOW?O@H_'
(ttp3912
a(S'I?G????O@?II??O@T?'
(ttp3913
a(S'I?C@@A@??q?R?A?G?O'
(ttp3914
a(S'I???_C?a@b?@??O@Q_'
(ttp3915
a(S'I?GA?C@?OC??C?OKIG'
(ttp3916
a(S'I?CA?C@?__A?PG@HB?'
(ttp3917
a(S'I@???`?PA@?GG?_P?o'
(ttp3918
a(S'I?O????g_Og?C?c@DO'
(ttp3919
a(S'I??@?K_H?PG?GG?PG?'
(ttp3920
a(S'I?GGOC?C?@G?OC_GG?'
(ttp3921
a(S'I?C?_D?oc@A@?G?GA?'
(ttp3922
a(S'I?C@?A?SC?GAC?`G?G'
(ttp3923
a(S'I?OA?_@??_@?G?OC?_'
(ttp3924
a(S'I?C@?AA_??D?C?_W?G'
(ttp3925
a(S'I?C?__??@@A@C?OK?G'
(ttp3926
a(S'I?O?O@?__@@@O?cg?G'
(ttp3927
a(S'I???O??G___o?Q?@@O'
(ttp3928
a(S'I????OOE@?aCGE?DG_'
(ttp3929
a(S'I?C?_c???@A@C?OK?G'
(ttp3930
a(S'I?CH???G??@KC??[?G'
(ttp3931
a(S'I?G@?W@AA?C?COS_GG'
(ttp3932
a(S'I?_A?@@?D?@?H?QCEG'
(ttp3933
a(S'I??@?O@a?_CAC_SGCG'
(ttp3934
a(S'IAGCO??O???GC?OKCG'
(ttp3935
a(S'I?GOO????O_GCE_??O'
(ttp3936
a(S'I?OG_P?C???C??OK?G'
(ttp3937
a(S'IAC????G?A?OCE_@CO'
(ttp3938
a(S'I?C?OO@@A?C?SOiGAG'
(ttp3939
a(S'I@?C?I?p@?A?C?W@M?'
(ttp3940
a(S'I@?A?K@P?_A?C?W@M?'
(ttp3941
a(S'I?O@?AA?_GAS??O@@_'
(ttp3942
a(S'I@?@?O?E?_GAO_PGOG'
(ttp3943
a(S'I?O??@?COaG?S?cGB?'
(ttp3944
a(S'I?C?_??__PA?OK?C?_'
(ttp3945
a(S'I?_@??A??`@@??OSGg'
(ttp3946
a(S'I?O????CQCA@C?QKAG'
(ttp3947
a(S'I?GC?GAO?OA?CCOKCG'
(ttp3948
a(S'I?O????C_PG?S?cg@G'
(ttp3949
a(S'I???O@?COG?G?KCC?g'
(ttp3950
a(S'I???O??G_GAP?W?@?o'
(ttp3951
a(S'I?O?O??__GA?SCCGEG'
(ttp3952
a(S'I?O??@@`A?D?C?iOEG'
(ttp3953
a(S'I??C?G?Qo?@?SG_WOG'
(ttp3954
a(S'I?C?OD?_??GAOCf??G'
(ttp3955
a(S'I?C?OO?c_?C@GIDC?G'
(ttp3956
a(S'I?C@O@?_AAA?OGd?@?'
(ttp3957
a(S'I??@?G?S_dAAAC?HB?'
(ttp3958
a(S'I?C?_CACC@CX?A?G?G'
(ttp3959
a(S'I?C@@@??C?A@CAAg?W'
(ttp3960
a(S'I?O?_@A??OBH?C?KC_'
(ttp3961
a(S'IACC_@?C???CG_?C?_'
(ttp3962
a(S'I?G_O??C@@CACA_?@?'
(ttp3963
a(S'I?O_O??C?Og?GA@S?G'
(ttp3964
a(S'IAC??@?C?@?O?EAC?G'
(ttp3965
a(S'I?G??@?`?R?@O?Oc?g'
(ttp3966
a(S'I?G?@C@?BA?OC?OGBG'
(ttp3967
a(S'I?C??AA?_@?OGCOC?_'
(ttp3968
a(S'I?O?_??oAA@?GC?`S?'
(ttp3969
a(S'I???OC?_OCA_O?a@B?'
(ttp3970
a(S'I?C??@?GCCACCg?G?O'
(ttp3971
a(S'I?C??C?O?_`SGA?OG?'
(ttp3972
a(S'IACC_??C???C?_OK?G'
(ttp3973
a(S'I@CG_C?_????C?aGCO'
(ttp3974
a(S'IAG??@?O?C@@O?R??g'
(ttp3975
a(S'I@CG_A?C???C?_?G?O'
(ttp3976
a(S'I?CP?A??@?_HC?_G??'
(ttp3977
a(S'I@?GOA?O??CC??_@G_'
(ttp3978
a(S'I?G?_G?P?@@?CK?GGO'
(ttp3979
a(S'I?C?_G?OOa@@?G?G?O'
(ttp3980
a(S'I?G?OA?C@?`K?C?C?_'
(ttp3981
a(S'I?C?_A?COA?A?C?G?O'
(ttp3982
a(S'I?C?_G?_@?a?CC@?GO'
(ttp3983
a(S'I?G??@?`?@CI??OC@G'
(ttp3984
a(S'I??A?E?e@CA@??P?I?'
(ttp3985
a(S'I???_A?P@G?CCA?PI?'
(ttp3986
a(S'I?C?_G?q@A??G?OPU?'
(ttp3987
a(S'I?C?OG?o_GC?G?T_@G'
(ttp3988
a(S'I?_@?G?C_Oa@?Oc@@O'
(ttp3989
a(S'I?GC?G?Oo?EACAC@`?'
(ttp3990
a(S'I?CH?????@@@G?a@?o'
(ttp3991
a(S'I?G?Oc???@C@G?O??_'
(ttp3992
a(S'I?G?O???OQCB??OC?g'
(ttp3993
a(S'I?C????@?A@AGC`@?o'
(ttp3994
a(S'I?CA?A?P?A_?W?OPC_'
(ttp3995
a(S'I??@?G?oCa??C?c@e?'
(ttp3996
a(S'I??@_G@?Q?c?G?Q@p?'
(ttp3997
a(S'I?GI?C???@@@O?O?Gg'
(ttp3998
a(S'I?G??@???_GCD__@BO'
(ttp3999
a(S'I?GA???C?OAA?o_@@O'
(ttp4000
a(S'I?G_?@?OA?_@W?O@C_'
(ttp4001
a(S'I?O??@?GC?I?CaC`DO'
(ttp4002
a(S'I?G@?@@Ga?K?COS?B?'
(ttp4003
a(S'I???_@?o`KG?G?OPE?'
(ttp4004
a(S'I?OO_A??B?G?C?OOI?'
(ttp4005
a(S'I?O?_G?CAbC?C??@B?'
(ttp4006
a(S'I?GA?@?C@a_??S?O?o'
(ttp4007
a(S'I?G??E?OAC?D??O@I?'
(ttp4008
a(S'I???S?_G`@G?W?OPA_'
(ttp4009
a(S'I??A_O?_P?EA??Q@p?'
(ttp4010
a(S'I?CC???C?_G?KYAS?O'
(ttp4011
a(S'I?C??@?CCCAGGW?C?_'
(ttp4012
a(S'I?G?O??Oa?_?WCO@C_'
(ttp4013
a(S'I?O?_??g_Og?C?_@DO'
(ttp4014
a(S'I?O?_@B??_@CO?OG?_'
(ttp4015
a(S'I?C????CCCAGCW?K?G'
(ttp4016
a(S'I?GOO???AAI?OCOCA?'
(ttp4017
a(S'I?GC???C`_?ACQ?G@O'
(ttp4018
a(S'I?O?_?@_b?@?C?OOEG'
(ttp4019
a(S'I?C????O_CDE??_W?G'
(ttp4020
a(S'I?G@???__P@@O?S_?g'
(ttp4021
a(S'I?C??@?O_@@OO?_w?G'
(ttp4022
a(S'I?CA?G?O_?`?G?SSCG'
(ttp4023
a(S'I?C??COGC_GEO?OGH?'
(ttp4024
a(S'I?C??C?`?_k?C?qOD?'
(ttp4025
a(S'I?O?_G?C?Q??CQ?o?W'
(ttp4026
a(S'I?O??@@Oa?I?D?h@B?'
(ttp4027
a(S'I?O?_??Y??_OC?QGD?'
(ttp4028
a(S'I???OAO?`?Kc??O_@G'
(ttp4029
a(S'I?O?_??GQC@@O?Q___'
(ttp4030
a(S'I???O@?a@C??S?agDG'
(ttp4031
a(S'I??@?QPAA?@?W?O`K_'
(ttp4032
a(S'I?C@????@P@@G?a_?_'
(ttp4033
a(S'I?OC?`????ACC?_G?O'
(ttp4034
a(S'I@?G?A?C?_@GCO_G?O'
(ttp4035
a(S'I?GO???CAAI?OCOCA?'
(ttp4036
a(S'I?OOO????QE@CA?g?G'
(ttp4037
a(S'I?C??A?C@E?B?APC?G'
(ttp4038
a(S'I?C?_C?CA?BD?C?c?_'
(ttp4039
a(S'I?G?O??_AAa?OCOCC?'
(ttp4040
a(S'I?C??A???PCX?AOc?G'
(ttp4041
a(S'I?CO_???@A?A?C_H?O'
(ttp4042
a(S'I?GO???C@A?ACE_@?O'
(ttp4043
a(S'I?C????GOCAG?KOK??'
(ttp4044
a(S'I?C????G_@?O?KOK?G'
(ttp4045
a(S'IAC?_C?O?@?G?A_@P?'
(ttp4046
a(S'I???_@?`?H@@O?Qc?g'
(ttp4047
a(S'I?O??G?Dc?IACOg@@O'
(ttp4048
a(S'I?G??CAG?PGWCA?O@O'
(ttp4049
a(S'IA?????W@AAP??O@C_'
(ttp4050
a(S'I????@?`BGA?CCQCEG'
(ttp4051
a(S'I???OAOQA?a@C_OKCG'
(ttp4052
a(S'I?G?O@?O_GCCCACo?G'
(ttp4053
a(S'I???_G?PC?K?C?p_h?'
(ttp4054
a(S'I?G?OC?`@H?@C?QGAG'
(ttp4055
a(S'I?G?O@?OCA?a??SKCG'
(ttp4056
a(S'I@?GO@?G??AGGOOC?_'
(ttp4057
a(S'I????@?COGCPGAQCAG'
(ttp4058
a(S'I@?G_??C??@C?_OK?G'
(ttp4059
a(S'IA?????O?QAPO?_HC?'
(ttp4060
a(S'IAC????C?ACPGAPC?G'
(ttp4061
a(S'I???_EAA@@?OC?OGH?'
(ttp4062
a(S'I?_C?HOQ_`?A?C`@AO'
(ttp4063
a(S'I?CC?S?_O_@AO?gGW?'
(ttp4064
a(S'I?_@_G?O_@@?GC?`o?'
(ttp4065
a(S'I?O?OO@__O_?S?kGCG'
(ttp4066
a(S'I?G@?@A?_@G?S?cG`?'
(ttp4067
a(S'I?G?OG?O_C_?C?OKDG'
(ttp4068
a(S'I?_?OC?I?E??W?O`D_'
(ttp4069
a(S'I?G@?A?_a@??OCO@Q?'
(ttp4070
a(S'I?G@?@@GQ?_OCa?_@O'
(ttp4071
a(S'I@?A?CB??O@?GAScKG'
(ttp4072
a(S'I?_??AOCPG??W?OPI_'
(ttp4073
a(S'I?O???OO_`AAC?OG@?'
(ttp4074
a(S'I?CC?GA??_C?W?O@@_'
(ttp4075
a(S'I?G????C@_CL?AC@a?'
(ttp4076
a(S'I???_G?OBC@?C?hOI?'
(ttp4077
a(S'I???OA?G_@?AFC?G?O'
(ttp4078
a(S'I??A?A?OBHA?CC?@Y?'
(ttp4079
a(S'I?C??AA?@G?CHC?@G_'
(ttp4080
a(S'I?C@?A?C@?AF?A?@?_'
(ttp4081
a(S'I?OOO????QG?SC_g?G'
(ttp4082
a(S'I?G?O??O?QG?KI@O?O'
(ttp4083
a(S'I?CA?_?G?@C?O?oo@_'
(ttp4084
a(S'I?G@?@@GOS_i?C?G?o'
(ttp4085
a(S'I???_G?P?@G?CCg@IO'
(ttp4086
a(S'I?G?_??C_CCEO?O@@_'
(ttp4087
a(S'I??A?C?H?H_?W?OPG_'
(ttp4088
a(S'I???O@??@?GGACC_CG'
(ttp4089
a(S'I???OC???aAoOC@@A_'
(ttp4090
a(S'I???_@?O??CK?G_Po_'
(ttp4091
a(S'I???O??G@?CL??SGaG'
(ttp4092
a(S'I?C?_C??@?GG?O_`P?'
(ttp4093
a(S'I?CG_????@?GGE?@?O'
(ttp4094
a(S'I?O?_???O?`?CA?WGW'
(ttp4095
a(S'I?C?????_@?ADA?S?G'
(ttp4096
a(S'IA??OC?_?c??G?PCH_'
(ttp4097
a(S'I?G?O@@?a?I?DC@CAO'
(ttp4098
a(S'IA?C?A?C@?AGCQ?G@O'
(ttp4099
a(S'I@?@?`?G@@?WGA?@@_'
(ttp4100
a(S'I?C?OC?P?A@CGA?o?G'
(ttp4101
a(S'I?C@@A@?EA??G?OcO_'
(ttp4102
a(S'I?C?_C@?OC?AC?OKGG'
(ttp4103
a(S'I?C?_??O?a@@GGOCC_'
(ttp4104
a(S'I?CA???O?OH?GGbO?O'
(ttp4105
a(S'I?G??G?p@a@@??O@E?'
(ttp4106
a(S'I?OG?@?C?PG?GAAS?G'
(ttp4107
a(S'I?C?O@?O_GCCGACOAG'
(ttp4108
a(S'IAC?O@?O?ACCGACO?G'
(ttp4109
a(S'I??@?@?H?ACe??OG@G'
(ttp4110
a(S'I?G?OA?O?Q?@CI@??O'
(ttp4111
a(S'I?G??@?G@?CK??OOQ_'
(ttp4112
a(S'I?C??C?G@?AR??OGK?'
(ttp4113
a(S'I?G?OA?O@A?@??P?A_'
(ttp4114
a(S'I???OCG?QKA?WGO@@_'
(ttp4115
a(S'I?G??C?g_?g?OCS@c?'
(ttp4116
a(S'I???_KAA@CG?G?OPK?'
(ttp4117
a(S'I???`?_`@?K?C?ooH?'
(ttp4118
a(S'I?GG?AOC@?GGCQ?O@O'
(ttp4119
a(S'I?CG????@@@@G?a@?o'
(ttp4120
a(S'I?O??AOO_@G?C?Og@G'
(ttp4121
a(S'I??A?A?W_[C@??O_C_'
(ttp4122
a(S'I????A?H?P@a?a?O?O'
(ttp4123
a(S'I??A?C?_Oi??C?_PQO'
(ttp4124
a(S'ICC??@???a?O?G?W?O'
(ttp4125
a(S'I?C??A?_OC?@GgOC??'
(ttp4126
a(S'I?G?O@?OOA?O?C_?A_'
(ttp4127
a(S'I????A?COA?OA??g@O'
(ttp4128
a(S'I?G?Oc@???GCC?_G?O'
(ttp4129
a(S'I?CI???O??@?GCb@?o'
(ttp4130
a(S'I?CC?_?_@?@?So_W?G'
(ttp4131
a(S'I?C?OA?GOSCGO?_g@?'
(ttp4132
a(S'I?G?OC?_OA@?WK?@?_'
(ttp4133
a(S'I?CC?@@GQ?_?Ka?c?O'
(ttp4134
a(S'I?CC@??C?_G?Ki?S?O'
(ttp4135
a(S'I???OA?H?@?a?a?P?O'
(ttp4136
a(S'I?G??CACC@CWCA?G@G'
(ttp4137
a(S'I?G?O??D@@?_O?_WI?'
(ttp4138
a(S'I?G??@?O_@?B?A_@OO'
(ttp4139
a(S'I?O?Og????A?GC@D@_'
(ttp4140
a(S'I?O??A?C?QG?CIDO?W'
(ttp4141
a(S'I?_@?A??A?C?C?`@J?'
(ttp4142
a(S'IAG?_@?O?C?G??OCD_'
(ttp4143
a(S'I?C??A?O_@?OO?ow??'
(ttp4144
a(S'I?OG?@?GCF??GA?D@_'
(ttp4145
a(S'I???OA?OOG?O?C_@I_'
(ttp4146
a(S'I????G?P?_k?C?pOh?'
(ttp4147
a(S'IA??OO?OA?@CGAOS?G'
(ttp4148
a(S'I?CC???G?P?GCA?c?G'
(ttp4149
a(S'I????@?C_@AOI??DB_'
(ttp4150
a(S'I?G????_`@?@C?OKQG'
(ttp4151
a(S'I?C??C?G_@?OOGOW?G'
(ttp4152
a(S'I?C@???GDA?C??_HA?'
(ttp4153
a(S'I?CG?????_HC?c?C?G'
(ttp4154
a(S'I??????C_G@C?KCC?g'
(ttp4155
a(S'IA??_@?O@A?C??_@P_'
(ttp4156
a(S'I?GG?C?_A@A?C?OCH?'
(ttp4157
a(S'I?_?OG?E?CAAOOa@@O'
(ttp4158
a(S'I?C@?A?Ca@?@O?s_?_'
(ttp4159
a(S'I?CA?@?GO?c?G__P?o'
(ttp4160
a(S'I?CA?A@?_OD?OO_w?G'
(ttp4161
a(S'I?G?O@?O?Q?@GI@??O'
(ttp4162
a(S'I?C@???COAABO?sG?_'
(ttp4163
a(S'IAC????G?C?GCOO[?G'
(ttp4164
a(S'I?C????G_@?OGM?D??'
(ttp4165
a(S'I???O???_@?_H?_`@o'
(ttp4166
a(S'I?CA?@?K?_AB?s?K?O'
(ttp4167
a(S'I?OA?A?C?_@I?S?WAO'
(ttp4168
a(S'I?OA?G?D?a_@?O_PAO'
(ttp4169
a(S'I?CA?A?OOC??OC_HI?'
(ttp4170
a(S'I?C?OG?`@A??GCPCAG'
(ttp4171
a(S'I?O?O@?__CG?GG`@@O'
(ttp4172
a(S'I?CG?A?O?aGSCA?O@O'
(ttp4173
a(S'I?G?OC?O?AG?CGSGDG'
(ttp4174
a(S'I?O__O?KQC__CA?OAO'
(ttp4175
a(S'I?_?OC?G@a_S?C?@@_'
(ttp4176
a(S'I?O??@@`a?D?C?gOEG'
(ttp4177
a(S'I?G@?@?_AaA?OOO@R?'
(ttp4178
a(S'I?G??@?p@A_?C?OGDG'
(ttp4179
a(S'I?O?O@?COCG?GAASAG'
(ttp4180
a(S'I?_?OC?G@e_C?C?@@_'
(ttp4181
a(S'I?O?_@@`??@ACCAGCW'
(ttp4182
a(S'I?CA@??GCOA?CI?C?O'
(ttp4183
a(S'I?C?_???@AG?SS_gO?'
(ttp4184
a(S'I?C??@?GO?GOGc?CA?'
(ttp4185
a(S'I?G??C?h?Og?C?OCL?'
(ttp4186
a(S'I????@GA?Oa?XO?@@_'
(ttp4187
a(S'I?G??O?Oo?D@GIC@__'
(ttp4188
a(S'I@?_O__H@@?CO?oWA_'
(ttp4189
a(S'I?CA?O?Q?_C@GaC@E?'
(ttp4190
a(S'I@??O@?a_?c?GATC@G'
(ttp4191
a(S'I????E@?OCA_O?O@I_'
(ttp4192
a(S'I?G@?O@?Q?@?S?cGi?'
(ttp4193
a(S'I?C??A?O@d?`?A?@I?'
(ttp4194
a(S'I????@?H?G@@Gw?@?o'
(ttp4195
a(S'I????@_G_?KS??_PAO'
(ttp4196
a(S'I??@?@?G@Q?oGA?_D?'
(ttp4197
a(S'I?G@?@@?@_G?CA?@B?'
(ttp4198
a(S'I?_@?AA??OE@???@?_'
(ttp4199
a(S'I?C?_C??@`?@G?O@A_'
(ttp4200
a(S'I???OA???a?o?E@@AO'
(ttp4201
a(S'I???O??P??a_Ca`@@O'
(ttp4202
a(S'IA???A?O?S?DGA?@GO'
(ttp4203
a(S'I?G@?@@@??I?Ci@@@O'
(ttp4204
a(S'I?G?O??O?Q@@OG`G?_'
(ttp4205
a(S'I?GA?CGAA@??C?_PQO'
(ttp4206
a(S'I?C?OA?GAC?GAK?@CO'
(ttp4207
a(S'I?CA@??GD_??O?O@A_'
(ttp4208
a(S'I?O?_G?G?O@AOC?@C_'
(ttp4209
a(S'IAC?_C?_?C??G?PSG_'
(ttp4210
a(S'I???O@?_`HA@O?SGAG'
(ttp4211
a(S'IAG?O@?_?A?@OOSC?g'
(ttp4212
a(S'I??C?S_GQ?@?W?O`W_'
(ttp4213
a(S'I@C?OC?G@??W??_gC?'
(ttp4214
a(S'IAG?OG?O?AC?C?SGDG'
(ttp4215
a(S'I@?A?P?Q?__?X?Q?C_'
(ttp4216
a(S'I?G?OC?COCG?OC_GI?'
(ttp4217
a(S'I?_?OC?H?AG?GC?De?'
(ttp4218
a(S'I????@?COGCOGAQc@G'
(ttp4219
a(S'I???_@_`?@@@OGQC?g'
(ttp4220
a(S'I@?A?@@QA?_?G_`@OO'
(ttp4221
a(S'I?O??@?__Ca?W?P@@_'
(ttp4222
a(S'I?OC?A@G?O@AGa?DS_'
(ttp4223
a(S'I?G?O@?O@A?c??SWAG'
(ttp4224
a(S'I???O@?Q?a?AO?SWCG'
(ttp4225
a(S'I?O?O@?__GA?SCCGEG'
(ttp4226
a(S'I????GOGOYC@??Oc?g'
(ttp4227
a(S'IAC????O?AAPO?_HC?'
(ttp4228
a(S'I????C?H?GCEC?OWGG'
(ttp4229
a(S'I?C?????_SAAGCPC?_'
(ttp4230
a(S'I?C@???G_P@AO?_O?_'
(ttp4231
a(S'I?C@???G_`@AO?OO?_'
(ttp4232
a(S'I?G@?@@_pC__CC?GAG'
(ttp4233
a(S'I?O?_`@HOAG_CA?_@O'
(ttp4234
a(S'I?SC?GG?O?@?OGgWOG'
(ttp4235
a(S'I?_@?D?_OcA?CCA?a?'
(ttp4236
a(S'I?C????O__`C?ASS?G'
(ttp4237
a(S'I?G?O??_b@?@C?OCAG'
(ttp4238
a(S'I?C??A?C@?`WOC@G?G'
(ttp4239
a(S'I?OG_P?????CC?_G?O'
(ttp4240
a(S'I?C@?AA_??B?OC???_'
(ttp4241
a(S'I?CG_?????HC?c?C?G'
(ttp4242
a(S'I?G?O@?O_@?B?A_@?O'
(ttp4243
a(S'I?C@?G?D??a?Sc@G?G'
(ttp4244
a(S'I?G?OC?OCC?E??o?G_'
(ttp4245
a(S'I?O?OG@@?_I?S?@@J?'
(ttp4246
a(S'I@??_C?C?O?IHA@C@_'
(ttp4247
a(S'I??@?@?__G??SCcgCG'
(ttp4248
a(S'IG?A?CAE?c@@?G@S?g'
(ttp4249
a(S'I??A?I?SCGC?C?`_W?'
(ttp4250
a(S'I??@?HAAA@A@??QCOG'
(ttp4251
a(S'I???_@?P?@AAE_?G@?'
(ttp4252
a(S'I??@?WAAC?@?S?cGKG'
(ttp4253
a(S'IAC??@?C?CA@O_`G?O'
(ttp4254
a(S'I?_??@?P?Oa??a`@@O'
(ttp4255
a(S'I?O???OGOQK?C?Og@G'
(ttp4256
a(S'I??????A?QACGI?@PO'
(ttp4257
a(S'I?OA?@@@?_AA?c@HAO'
(ttp4258
a(S'I?_?O??Q?SCAG_`@@_'
(ttp4259
a(S'I?G??C?__@@@?GOKOG'
(ttp4260
a(S'I?G?OG?O?Q@@?G`G?O'
(ttp4261
a(S'I?O?_G?D?G@?Cc@g?W'
(ttp4262
a(S'I??@???X??__G?Q@D_'
(ttp4263
a(S'I??@?AA?_@@o??OS?g'
(ttp4264
a(S'I??A_C?OOWG?C?a_P?'
(ttp4265
a(S'I?O?_CO?O?`_G?OOG_'
(ttp4266
a(S'I?G??G?p@I??G?OPE?'
(ttp4267
a(S'I?G?OH@?PC??O__GA?'
(ttp4268
a(S'I?CA?Ba??SA@?k?KCO'
(ttp4269
a(S'I???_@?_`@Co??OOAG'
(ttp4270
a(S'I????A?C?_@[AK?G?O'
(ttp4271
a(S'I?C??C?G?_DY?A?OC?'
(ttp4272
a(S'I?C?_@??@A?@OO_gO?'
(ttp4273
a(S'I?G@???__@A@OGO@O_'
(ttp4274
a(S'I?C?_??_OQG?OK?C?G'
(ttp4275
a(S'I?C????`?AC?S?gWEG'
(ttp4276
a(S'I???OC?OOcAGCAG@B?'
(ttp4277
a(S'I????@OI@?`K?C_@?o'
(ttp4278
a(S'I????@?C@?aS?CYC?g'
(ttp4279
a(S'I?C??A?C@?`W?C`G?O'
(ttp4280
a(S'ICCC?C?_?ODa@?ao?g'
(ttp4281
a(S'I?CA?A?OAa??CG@OOO'
(ttp4282
a(S'I?CA?A?OAa??OGPOO?'
(ttp4283
a(S'I?C@?????PG?Sccg?G'
(ttp4284
a(S'I?G@???C?_@KGC?@Ao'
(ttp4285
a(S'I?O?_??C?O@KOG?O?g'
(ttp4286
a(S'I??????C?O@HAOCg?W'
(ttp4287
a(S'I?C??C???cA@OGPGG_'
(ttp4288
a(S'I????@?COaC_GASCB?'
(ttp4289
a(S'I?C??A?COC@GOC_g?O'
(ttp4290
a(S'I????C?GQC@@G?Ocg_'
(ttp4291
a(S'I?OA?@?H_h@A?C?WAO'
(ttp4292
a(S'I?C?_A?C_@?OE?_g@O'
(ttp4293
a(S'I?OA?OGaC?A?CGPCOG'
(ttp4294
a(S'I?O?_G?C_P?AW??@@_'
(ttp4295
a(S'I?GOO????OcG?AOC@G'
(ttp4296
a(S'I?C????H?ACCOG_X??'
(ttp4297
a(S'I?C?_???_@?OOG_X?O'
(ttp4298
a(S'I?GB?IAA?@C?C?O@X?'
(ttp4299
a(S'I?O?_CA?_@Ao??O@@_'
(ttp4300
a(S'I?CA?GOA@@C?C?_oGG'
(ttp4301
a(S'I?O?OG@A??I?DG`@HO'
(ttp4302
a(S'IA?A?C?g@CA?C?O@L?'
(ttp4303
a(S'IA??OC??A?A?GC@D@_'
(ttp4304
a(S'I?O?_???@`G?CA?@J?'
(ttp4305
a(S'I???_@?`@GK?C?Q_DG'
(ttp4306
a(S'I?C?_A?a@B?@D?OKAG'
(ttp4307
a(S'I?C?OA?CCC?_?g@K?G'
(ttp4308
a(S'I???OG?Q?_g?C?SSKG'
(ttp4309
a(S'I?C@???G_`G?W?OPA_'
(ttp4310
a(S'I?C??A?OOCCI??_H@?'
(ttp4311
a(S'I?O?_?@_BA@?C?OOEG'
(ttp4312
a(S'I?OC???Ca?_CG?_P?o'
(ttp4313
a(S'I?C????O`@@Q??_W?G'
(ttp4314
a(S'I?CA@@???oA@?k?K?O'
(ttp4315
a(S'I?G??CAD@?@L?A?O?g'
(ttp4316
a(S'IAC????G?@?OG_?D@_'
(ttp4317
a(S'IAC??A?O?C?DGA?@GO'
(ttp4318
a(S'IAC??G?O?CA?KE?CK?'
(ttp4319
a(S'I?C?_??_AAC?C?_oCO'
(ttp4320
a(S'I?G?OG?OA@??CCQCAG'
(ttp4321
a(S'I?O??E??A?_@G?P@W_'
(ttp4322
a(S'I???_G??@A?@CQ_`oO'
(ttp4323
a(S'I@?G_@?C??@CG_?C?_'
(ttp4324
a(S'I?GO?@?C@ACACA_?@?'
(ttp4325
a(S'IA???@?C?P?O?EAC?G'
(ttp4326
a(S'I?GA?@?O?CC?CGQGDG'
(ttp4327
a(S'I?G??C?p?aG?C?O@F?'
(ttp4328
a(S'I@??OCPAA?_?GAPCGG'
(ttp4329
a(S'I?C?OC?H?AAaOC?@C_'
(ttp4330
a(S'IAC@?????@A@O?qGO_'
(ttp4331
a(S'I??????H?WA@?GA@Co'
(ttp4332
a(S'I?O?O????aA@@?@@A_'
(ttp4333
a(S'I@?G???G?OCGCA_@CO'
(ttp4334
a(S'I?GA?GA?_@@?OCc@_O'
(ttp4335
a(S'I?OOOg????A?W?O@@_'
(ttp4336
a(S'I?GG????A@K?C?OCHG'
(ttp4337
a(S'I?_?_@?C@E???Q_`@O'
(ttp4338
a(S'I?_?OA@G`?@@@?_`Co'
(ttp4339
a(S'I?OC_G@?O?C?GGQ@o_'
(ttp4340
a(S'I???OCAAA@@@H?a@?o'
(ttp4341
a(S'I?OA?Q@?O?@?S?gGY?'
(ttp4342
a(S'I?_A_??C@G@H?O_`OO'
(ttp4343
a(S'I?C????O_`?OCA_PAO'
(ttp4344
a(S'I?G??C??Q?_?WCO@W_'
(ttp4345
a(S'I???_???OWCI?A_POO'
(ttp4346
a(S'I@?G???C?OAC?_OK?G'
(ttp4347
a(S'I?O??@?COCG?SCaGAG'
(ttp4348
a(S'I???OG?OOkG?CGQC@G'
(ttp4349
a(S'I?O?OO?__Oc?C?cWCG'
(ttp4350
a(S'I?OG?@?G?a?CC?OK@G'
(ttp4351
a(S'I?C??A?C@?_WCC@K?G'
(ttp4352
a(S'I?G?O??O?Q?@?I`@?O'
(ttp4353
a(S'I?G?_O@CA_C?Cq?@QO'
(ttp4354
a(S'I?C??A?C@?CY??PG@G'
(ttp4355
a(S'I?G?O??G?QG?KY?C@O'
(ttp4356
a(S'I?O?OA?CB?G?C_@_@G'
(ttp4357
a(S'I????GAIACC?C?_PKO'
(ttp4358
a(S'I??????@?g@ACCaGCO'
(ttp4359
a(S'I?G????OCa@CCA?CQ?'
(ttp4360
a(S'I?G????OCcCCCA?@I?'
(ttp4361
a(S'I?O?OC?C?Og?GABO?G'
(ttp4362
a(S'I?C?_@?GA?a@Cq?C?O'
(ttp4363
a(S'I?C?O@?O?A?@OGdG?G'
(ttp4364
a(S'I??@?G?_CP??G?QcoG'
(ttp4365
a(S'I?O??@@@A?@?S?aWEG'
(ttp4366
a(S'I?_?_?AC`?@?CS?W?W'
(ttp4367
a(S'I??A?A_CPE??G?OSA_'
(ttp4368
a(S'I???CA_C`@G?C?_g@O'
(ttp4369
a(S'I?K?OO?pA?A?ECACE?'
(ttp4370
a(S'I?GOOc?GCA?OO?OG@_'
(ttp4371
a(S'I?G??A?C?OcK?A?CP?'
(ttp4372
a(S'I?O?`G@?E?@?C?OCIG'
(ttp4373
a(S'I?CC?S?_OOAAO?]??g'
(ttp4374
a(S'I?O?O@?_AQ??GOCc@G'
(ttp4375
a(S'I?OA@GA?_cA?CC?DB?'
(ttp4376
a(S'I???_???PG?ICA_POO'
(ttp4377
a(S'I?G?O??_`@?@C?OKAG'
(ttp4378
a(S'I?G??G?__@@AOC_@OO'
(ttp4379
a(S'I?G@???Ca@G?O?o_P?'
(ttp4380
a(S'I????C?X?a?a?CO@C_'
(ttp4381
a(S'I????A?O@c@h??O@E_'
(ttp4382
a(S'I?C????O_gCC??_HR?'
(ttp4383
a(S'I?OA?OGIC?@?W?S@E_'
(ttp4384
a(S'I?O?OA?GQK??W?O`H_'
(ttp4385
a(S'I?CA?GGA@@C?G?_PQ?'
(ttp4386
a(S'I?G@???_OA@BO?O?Og'
(ttp4387
a(S'I?C??@?H?QCCO?_w?G'
(ttp4388
a(S'I?G?_C?_OCG?C?OCJ?'
(ttp4389
a(S'I?C??C?SCA?OC?`g?G'
(ttp4390
a(S'I?O?_A?oAA??C?OoS?'
(ttp4391
a(S'I?O@?A?C_CG?C?Pg@G'
(ttp4392
a(S'I?O?OA?H?A?CC?O[AG'
(ttp4393
a(S'I?C?_C??@`A@C?OGA?'
(ttp4394
a(S'I?GG?@?OAA??W?O@D_'
(ttp4395
a(S'IA??OA??@@?OO?_@H_'
(ttp4396
a(S'I?C?OA?P?GCC?A_@J?'
(ttp4397
a(S'I?G?_C?_OC@@O?O_G_'
(ttp4398
a(S'I?G?OE?P??GC??O_H?'
(ttp4399
a(S'I?G?O??OOACBCA_???'
(ttp4400
a(S'IOG??C?G?OgKCA?O@O'
(ttp4401
a(S'I@C?_@?OA??CGa?cO?'
(ttp4402
a(S'IAC?_@?O?C?@?AQCCG'
(ttp4403
a(S'I?G??@?C@?_T??QC?g'
(ttp4404
a(S'I?G??C?G?Q@F?C?GOo'
(ttp4405
a(S'I?C??A?GC?CADO?GG?'
(ttp4406
a(S'I?C?`??CE?C?Og_G@?'
(ttp4407
a(S'I?GA?K@AC?C?COS_GG'
(ttp4408
a(S'I?G?OG?_@I??C?SSEG'
(ttp4409
a(S'I@???@?H@??IGA?DD_'
(ttp4410
a(S'I@?@?@?CA?ACOGU??g'
(ttp4411
a(S'I?_A?C?C?g?B?Oa@OO'
(ttp4412
a(S'IA??_@?C?`?G@??O?o'
(ttp4413
a(S'IAC@?@?_?CA?SCAGCG'
(ttp4414
a(S'I?O?OA?__?_@C?CGCW'
(ttp4415
a(S'I?C?_G??@A@@OO_gO?'
(ttp4416
a(S'I?C?_C?O_@?OC?_WA?'
(ttp4417
a(S'I?C@?@?__`@@O?cGA?'
(ttp4418
a(S'I?G?_@?P?A?AO?OOC_'
(ttp4419
a(S'I????@?`@GA?CCQKEG'
(ttp4420
a(S'I?O?OA?_AE??S??oCG'
(ttp4421
a(S'I?O?OA?_`?_@C?CGCG'
(ttp4422
a(S'I?G?O@?O@D?IG?O?@_'
(ttp4423
a(S'I?Co?A?OB?`@??cO?_'
(ttp4424
a(S'I?C??A?H??GEA_?@@O'
(ttp4425
a(S'I?C@?@?d??g?OCb??G'
(ttp4426
a(S'I?G????C?_CK@A?@B?'
(ttp4427
a(S'I?_@@@??COA???Ok?G'
(ttp4428
a(S'I?_@@@??C_@???_HAO'
(ttp4429
a(S'I???_@?P??`gO?PO?g'
(ttp4430
a(S'I???O@?E?c?AO_`G@O'
(ttp4431
a(S'IA???A?C?SA@OO_HGO'
(ttp4432
a(S'I?CA?CAG?RG?GCCO?O'
(ttp4433
a(S'I?C??C?d?QG?GC@c?G'
(ttp4434
a(S'I?C?_???_@@AGC_@?o'
(ttp4435
a(S'I?C?_??_`@A@??OCA_'
(ttp4436
a(S'I?O?O??WA?_@G?Q@C_'
(ttp4437
a(S'I?CG?O??@?ACO?OG?G'
(ttp4438
a(S'I?OA?OB??O@?T?ggKG'
(ttp4439
a(S'I?O?OG@@A?D?COiOAG'
(ttp4440
a(S'I?G??@?p@G?@C?QGEG'
(ttp4441
a(S'I@?C?A?Q?OAAO_SGC_'
(ttp4442
a(S'I?O?_G?CO_I?SC?@J?'
(ttp4443
a(S'I?O?_G?O?_@@G?O@E_'
(ttp4444
a(S'IAC?OA?O?CCC?A_@H?'
(ttp4445
a(S'I?GOO???@A?@W?O@A_'
(ttp4446
a(S'I?G????_b@?@C?OCQG'
(ttp4447
a(S'I?C??@?_OC@AGCAC?G'
(ttp4448
a(S'I?C@???GQA@@G?_`?o'
(ttp4449
a(S'I?C????G?Q@@@O?k?G'
(ttp4450
a(S'I?C????G`?_OCA_PCO'
(ttp4451
a(S'I?O?O??_`?g?C?cOCG'
(ttp4452
a(S'I????C?`?Ok?G?pOh?'
(ttp4453
a(S'I?C?OA?O??CS?G_PG_'
(ttp4454
a(S'I?C??C?CA?_@GOe@?o'
(ttp4455
a(S'I?C?OO@____?LA@C?O'
(ttp4456
a(S'I?C?OC?H?B??GE?c?_'
(ttp4457
a(S'I?C@?@?_AQ??OOco?G'
(ttp4458
a(S'I?G??G?O_cK?C?O@F?'
(ttp4459
a(S'I?O?OA?G_?`CDA?W?W'
(ttp4460
a(S'I?C??D?_AC@?OGbO?G'
(ttp4461
a(S'I?CC?`?_@?@?Ga@S?G'
(ttp4462
a(S'I?O??@?___I?SCC@F?'
(ttp4463
a(S'IAG??@?O?C@G??OSCg'
(ttp4464
a(S'I????A?P?WEI??O@D_'
(ttp4465
a(S'IAG?_??O?ACP??O@C_'
(ttp4466
a(S'IAC??A?G?@?GD?O[?G'
(ttp4467
a(S'I?C????O_OaC?Ac@@O'
(ttp4468
a(S'IAC????G?CAC?_OK@?'
(ttp4469
a(S'I?CG?C?O?`?GGAOO??'
(ttp4470
a(S'I?CG?A?O@@?HC?_G??'
(ttp4471
a(S'IC???@?C?a?O?G?W?O'
(ttp4472
a(S'I?G??c?_CAG?D?OCDG'
(ttp4473
a(S'I?G@???C?OCI??PG@G'
(ttp4474
a(S'I?G@???C?OCIG?P?@_'
(ttp4475
a(S'I?G?OC?OCCAE??O?G_'
(ttp4476
a(S'I?OAOOB??O@?GACcKG'
(ttp4477
a(S'I???O@?O_gCP??`@A_'
(ttp4478
a(S'I?G??@?`@b?@O?O@A_'
(ttp4479
a(S'I????@?P?QAaO?`@@_'
(ttp4480
a(S'I????@?G?_CHAO?@Q_'
(ttp4481
a(S'I?C??A?GA?C@@O?@I?'
(ttp4482
a(S'I?C??G?H?B_?KA?S?O'
(ttp4483
a(S'I?C??A??OC@IOC_H?O'
(ttp4484
a(S'I?GG?G?C@A@@@S?G?W'
(ttp4485
a(S'I?O?_@?GA?a?Ca?@DO'
(ttp4486
a(S'I???_E?_O?`@O?W@W_'
(ttp4487
a(S'I?C@?C?GCC?aG?O@K_'
(ttp4488
a(S'I?CA?O@GB?C?G_S@E?'
(ttp4489
a(S'I?OA?H?W???AGCU?c?'
(ttp4490
a(S'I???O??GC?CAJ?A@C_'
(ttp4491
a(S'I?C?_G?P@GG?G?QOE?'
(ttp4492
a(S'I?O@???GCS?_GGA@C_'
(ttp4493
a(S'I???_O?_D?@?LAGCM?'
(ttp4494
a(S'I????C??OWG?S?agPG'
(ttp4495
a(S'I????@?G?C@@A__`Co'
(ttp4496
a(S'I?G????C?OAI@Q?@@O'
(ttp4497
a(S'I???O@?Q?a_S?A_@@O'
(ttp4498
a(S'I?C@?I??AGA?OGP@X?'
(ttp4499
a(S'I?OC?_?_?O??G?`PGo'
(ttp4500
a(S'I?GA?C?G?O@A?C_@Co'
(ttp4501
a(S'I?G??@?GA?_@D__@CO'
(ttp4502
a(S'I???OG?P?a??GAOSe?'
(ttp4503
a(S'I?G??C?P?OIC??O_H?'
(ttp4504
a(S'I?C@???aAC@?Gc`@AO'
(ttp4505
a(S'I??@?G?GO]?@??Oc?g'
(ttp4506
a(S'I?G??Q?_P?CB?AS@g?'
(ttp4507
a(S'IAC??@?G?C?G?U?C?G'
(ttp4508
a(S'I?C??A?P?ADEGA?O??'
(ttp4509
a(S'I????@?OOC?_?CQg?G'
(ttp4510
a(S'I????C?_OC@?GAOsgG'
(ttp4511
a(S'I????@?GOGA@@g?@?o'
(ttp4512
a(S'I????C?`Ag@?CCa@EO'
(ttp4513
a(S'I????@?O_`A_O?S@B_'
(ttp4514
a(S'I?_?_@?C@EG??O_`@O'
(ttp4515
a(S'I?O?OG@@@_I?C?@@J?'
(ttp4516
a(S'I???OG_DA@C?G?Qc@G'
(ttp4517
a(S'I@C??@?O@O?S??ag?G'
(ttp4518
a(S'I@C?O@?O@??I??dG?G'
(ttp4519
a(S'I?O?OG?c??@AHCBO?W'
(ttp4520
a(S'I?C??C?G@OIW?C?_C?'
(ttp4521
a(S'I?G????W@?HI?CC@c?'
(ttp4522
a(S'I??????G_WAP?W?@?o'
(ttp4523
a(S'IAG????G?A@CCE?COO'
(ttp4524
a(S'I?C????O_cEC?AO@B?'
(ttp4525
a(S'I?G@?A?SCA@T?A?_A_'
(ttp4526
a(S'I?O?_GOaC?A?CG?DL?'
(ttp4527
a(S'I@??O_?_@@?@GaTCAG'
(ttp4528
a(S'I?O@?GG?OC@?C?_WAG'
(ttp4529
a(S'I??@?GG?OKA?CCOKAG'
(ttp4530
a(S'I???O@?G_@?PAG_@?o'
(ttp4531
a(S'I??@?A@?OC?_W?O@I_'
(ttp4532
a(S'I?C??AG?OG??XC?@A_'
(ttp4533
a(S'I?_A?CO?OWC?G?OoGG'
(ttp4534
a(S'I???O@?O_CAE?Ag@@O'
(ttp4535
a(S'I???OC?Y?a@Q?C?@C_'
(ttp4536
a(S'I?C@?C?`CIA?GG@`@_'
(ttp4537
a(S'IAC??@?_?CC?S?aWCG'
(ttp4538
a(S'I??A?C?OOGI?C?a@R?'
(ttp4539
a(S'I??????G_WAQ?Q?@@O'
(ttp4540
a(S'I?C??@?H?aCCO?_HB?'
(ttp4541
a(S'I?C@???G?OCK??Ow?G'
(ttp4542
a(S'I????C?OOcA_?AO@J?'
(ttp4543
a(S'I???_A?C_@?_@?OKB?'
(ttp4544
a(S'I????A?D?G?GCO_g@O'
(ttp4545
a(S'I????G?Q?O_?HAQCDG'
(ttp4546
a(S'I?GA?@?OAO@C?KAO?W'
(ttp4547
a(S'I?GW?G?O?O@?HCAO?o'
(ttp4548
a(S'I?G??CADA?@D??aO?o'
(ttp4549
a(S'IAG?O@?C?@?OG_?C@_'
(ttp4550
a(S'I?O?_o@_?O@_DA?cKG'
(ttp4551
a(S'IA?@?O?_?O??G?`P?o'
(ttp4552
a(S'I?G?????C`@OO?OCI_'
(ttp4553
a(S'IA??OA?O?SCC?A_@H?'
(ttp4554
a(S'I????@AA?`CWO?OO?g'
(ttp4555
a(S'I??C?GAQ_?@CGAOSOG'
(ttp4556
a(S'I???_G?o_KC?C?_PE?'
(ttp4557
a(S'I????A?X?QCa??O@D_'
(ttp4558
a(S'I?C?_G?_OaC@?G?@?O'
(ttp4559
a(S'IAC????C?AACH??D@_'
(ttp4560
a(S'I????@?C?_?SA__PAo'
(ttp4561
a(S'I?C????G?Q?@@OOk?G'
(ttp4562
a(S'I?OC?`?C??ACG?_@?o'
(ttp4563
a(S'I?OC_OGAA?@?GG?DS_'
(ttp4564
a(S'I??A?@?O_l??WCO@A_'
(ttp4565
a(S'I?G@?KO?OWG?GG?PG?'
(ttp4566
a(S'I@??OO?G@P?QGa?C?_'
(ttp4567
a(S'I?G?_@?_`C@@O?P?A_'
(ttp4568
a(S'I?C?O@?OOCCAGAAO?G'
(ttp4569
a(S'I?G?_G?OBC@?CC@?I?'
(ttp4570
a(S'I?CA?A?OO?g?GC?DW?'
(ttp4571
a(S'I?O??G@OE?@?D?h?IG'
(ttp4572
a(S'I????C_GO?HW?C_@AO'
(ttp4573
a(S'I????G?X?iC@??O@E_'
(ttp4574
a(S'I?O????C?Qg?S?dG@G'
(ttp4575
a(S'I????A???S@gOC_gCO'
(ttp4576
a(S'I?G?Oc???@?@G?OC?_'
(ttp4577
a(S'I?C?_???_@?ACC_G?O'
(ttp4578
a(S'I?C?OA@?a?B?HE?cCO'
(ttp4579
a(S'I?C@?A?CC?H?Ga@SAG'
(ttp4580
a(S'I?O?_G?O?`_?CA?@H?'
(ttp4581
a(S'I?C??@?_CCC?S?agCG'
(ttp4582
a(S'I???OA?GCC?_?W?HGO'
(ttp4583
a(S'I?_C?POI?P?AO?QC?g'
(ttp4584
a(S'I?CC?a?_@?@?Ca?SCG'
(ttp4585
a(S'I?O?OPO?Q?A?CCAKAG'
(ttp4586
a(S'I??A?P`@?OAAO?RC?g'
(ttp4587
a(S'I?_O?O?C?_C?CA_@AO'
(ttp4588
a(S'I?C@?_?_CB??G?_P?o'
(ttp4589
a(S'I?C@@O??A?_?G?_P?o'
(ttp4590
a(S'I?_??@?G`DG?G?OSa?'
(ttp4591
a(S'I?C@???G?OKK??_oO?'
(ttp4592
a(S'I?O@???GAB@?CACOAG'
(ttp4593
a(S'I?C@?A?OA?_?GC@@G_'
(ttp4594
a(S'I???O??GO?GIB?_@@O'
(ttp4595
a(S'I@?GO??C??AGGO_@?o'
(ttp4596
a(S'I?O?OG@DA?A?CCBCAG'
(ttp4597
a(S'I?CC@??_@?@?GAQSAG'
(ttp4598
a(S'I?C@?A?P?@@AGA?OG?'
(ttp4599
a(S'I?G?OG?OAe??C?OCF?'
(ttp4600
a(S'I?Ga?CA_?W@?DC?oCW'
(ttp4601
a(S'I?O?`GA??W@OCK?WGW'
(ttp4602
a(S'I?C@?GA?_H??GAOSOG'
(ttp4603
a(S'I?CA?A?CBC?H?O_`?O'
(ttp4604
a(S'I?G?OA?`C?@?Ke?CEO'
(ttp4605
a(S'I?G@?_?C?ODL?A?O?g'
(ttp4606
a(S'I?GG?C??A@??W?O@H_'
(ttp4607
a(S'I?_??@?C?_?C@__PAO'
(ttp4608
a(S'I????A?E?aCCO?S@B_'
(ttp4609
a(S'I??A?C?OCgG?C?`@Y?'
(ttp4610
a(S'I?G???OC`?`?CE@G?W'
(ttp4611
a(S'I?G???G_D@@@@?OCAg'
(ttp4612
a(S'I?????_H?P@?Wg?O?_'
(ttp4613
a(S'I????@?C?__SIc?@?o'
(ttp4614
a(S'I?G??@?C@?aSO?Q?@_'
(ttp4615
a(S'I?G??@?G@_KW??O@F?'
(ttp4616
a(S'I?G??@?GAEC?WGO@D_'
(ttp4617
a(S'I????@?G@?aWO?W@D_'
(ttp4618
a(S'I?O?O@?`@AA?GA@@B?'
(ttp4619
a(S'I?O??@?`?QA?GI@@@O'
(ttp4620
a(S'I?OG@G???OA?W?O@@_'
(ttp4621
a(S'I?GG?O?C?OCC?A_@?O'
(ttp4622
a(S'I?GO???C@A?@W?O@A_'
(ttp4623
a(S'I??@???A?S?AGCa@Co'
(ttp4624
a(S'IAC??????@?OCEAC?G'
(ttp4625
a(S'I?G??G?p?a?@C?OCE?'
(ttp4626
a(S'I?CA?O?SB?@?G?`o?G'
(ttp4627
a(S'I?G?OA?C?OcK?A?C@?'
(ttp4628
a(S'I?C@???____@O?sGC?'
(ttp4629
a(S'IA?C?@GO?`?CGE?DA_'
(ttp4630
a(S'I?CC?G@OB?A?C?\\?IG'
(ttp4631
a(S'I?GA?C?o_C??G?OPe?'
(ttp4632
a(S'I?O?_G@@??EAC?PGh?'
(ttp4633
a(S'I?G?OC?P?A?E??_P__'
(ttp4634
a(S'I?C?_C?GOCCa??OGH?'
(ttp4635
a(S'I?_O?O?C@CAA?Aa`@O'
(ttp4636
a(S'I?_?`_?D?OH?OS?oGW'
(ttp4637
a(S'I???OA?_OkCAC_OK@G'
(ttp4638
a(S'I@?A?C?CO__?GC?DA_'
(ttp4639
a(S'I@C?_C?C?O?W?O_g?O'
(ttp4640
a(S'I@G?O@?O@??I??T??g'
(ttp4641
a(S'I?G?O??O@?IK??O@B?'
(ttp4642
a(S'I?CG????@@AGW?O@@_'
(ttp4643
a(S'I?O?O@?CAA?COGkG@G'
(ttp4644
a(S'I?C?OA?CCA?_@G@C?g'
(ttp4645
a(S'I?G@?W_`C?@?CG_@KO'
(ttp4646
a(S'IAC?_??O?ACP??_HC?'
(ttp4647
a(S'I???_CA?_@AOO?O@`_'
(ttp4648
a(S'I???O??CCAACHG?C__'
(ttp4649
a(S'I?O?_??C@@_@GA?@G_'
(ttp4650
a(S'I?OG_G@???@???PC?g'
(ttp4651
a(S'I?C@@???A?aH??_H@O'
(ttp4652
a(S'I?G?O??_AA_?OCOCCG'
(ttp4653
a(S'I?CA???C@?D@?_`o?g'
(ttp4654
a(S'I????@?G_G@AHS?@?o'
(ttp4655
a(S'I@??_A?C@??SO_OGB_'
(ttp4656
a(S'I?G@???__`@B?C?@?o'
(ttp4657
a(S'I?O?_O?oA_@?C?OOM?'
(ttp4658
a(S'I?O?_@@@A?@?CEA_CW'
(ttp4659
a(S'I?O??@@@?_@ACEAGCW'
(ttp4660
a(S'I@?GO??G??CGCA_@CO'
(ttp4661
a(S'I?O??C@C_CA?CA@GAG'
(ttp4662
a(S'I?G?OA???PCI??OC@_'
(ttp4663
a(S'IAC?_C?O?@?@??_HW?'
(ttp4664
a(S'I???O@O?A@A_O__`@O'
(ttp4665
a(S'I?O?O@GA?@G?S?cg@G'
(ttp4666
a(S'I?_?O@?QC?IQ?_`@@O'
(ttp4667
a(S'I?O?OG@?O?IAD?g@HO'
(ttp4668
a(S'I?O@_??_AA?@G?O`S?'
(ttp4669
a(S'I?CO???G@A?A?C_H?O'
(ttp4670
a(S'IACC_??C???GGO_@?o'
(ttp4671
a(S'IAC??A?C?CA@OO_HGO'
(ttp4672
a(S'I@?GO@?G??CGO?_@C_'
(ttp4673
a(S'I?C@?GA@?@A?SCGGGG'
(ttp4674
a(S'I?O?O@?O?a?o??`GB?'
(ttp4675
a(S'I?G?OC?OOC?A??_Hh?'
(ttp4676
a(S'IA??_??O?P?H??_HOO'
(ttp4677
a(S'I?O?OA?_AEC?C??oCG'
(ttp4678
a(S'I?O?OG?cCA??G?Pc?G'
(ttp4679
a(S'I?C?_???`@G?C?_g@O'
(ttp4680
a(S'I??????C?OCIAAD?@G'
(ttp4681
a(S'I?O??G?G_T@A?C?o?w'
(ttp4682
a(S'I?G??@?W_?KQ??O@D?'
(ttp4683
a(S'I?_@?@?GD@@???QWAG'
(ttp4684
a(S'I?C?_A?O_C@E?AOS?G'
(ttp4685
a(S'I?C????P?aAD?A?@AO'
(ttp4686
a(S'I???_C?gc?K?CGW@T?'
(ttp4687
a(S'I???OCOA@?_CG?_PG_'
(ttp4688
a(S'I???OG_GOA@@OGSC?g'
(ttp4689
a(S'I?C@?a?CA@AH?CCG?O'
(ttp4690
a(S'I?O??@?GOECa??OG@G'
(ttp4691
a(S'I?C??A?C@?@K?Ccg?O'
(ttp4692
a(S'I?C??@?C@?GC@CA_?G'
(ttp4693
a(S'I?G?_@?C???g@O?WAO'
(ttp4694
a(S'I@?GO??C??AC?_OK?G'
(ttp4695
a(S'I?G?O@_@@@G?W?QOA_'
(ttp4696
a(S'I?O?OO?_COA?DAB_?W'
(ttp4697
a(S'I?C?_H?OO?g?GCACO?'
(ttp4698
a(S'I?C?_C?GOGCI??OGP?'
(ttp4699
a(S'I?GG?C?CAA@?PC@O?g'
(ttp4700
a(S'I?G?OCAOAB??CCCG@G'
(ttp4701
a(S'ICC@?A???OBB?C?K?_'
(ttp4702
a(S'I?K?OO@PA?A?EAB?AO'
(ttp4703
a(S'I?O?OO@CA_A?DAB?AO'
(ttp4704
a(S'I?___??G?OK?COOc@G'
(ttp4705
a(S'I?_?OAGA@D?A??OS?g'
(ttp4706
a(S'I???OA@?_G@CHG?C?_'
(ttp4707
a(S'I???OA?a@C_?W?P@H_'
(ttp4708
a(S'I?C?OC?SCA?OG?`_?_'
(ttp4709
a(S'I?G??@?C@D?B??QC?g'
(ttp4710
a(S'I?O@???GAB?@C?SGAG'
(ttp4711
a(S'I?C@?A?OA?`?GA@OG?'
(ttp4712
a(S'I?O?PG@??QA@DG?g?W'
(ttp4713
a(S'I?COg_?_?OBP?K?KGO'
(ttp4714
a(S'I?C?????_`CPGA?@AO'
(ttp4715
a(S'I?GA?C?C?O@C?G_O?o'
(ttp4716
a(S'I?C??A?O_C@AO?OWCG'
(ttp4717
a(S'I?CA?G_@?PC?G?Qc@G'
(ttp4718
a(S'I???OAO?P?Kg??OOAG'
(ttp4719
a(S'I?C??C??OSG?S?ag@G'
(ttp4720
a(S'I?C@?A?_@b_@??OOO_'
(ttp4721
a(S'I?CC?A?_A_@?Ck?CCO'
(ttp4722
a(S'I????E@?ACC_G?O@M?'
(ttp4723
a(S'I?C?O??G?_GI@C?CC?'
(ttp4724
a(S'I????@?P?Oa_?a`@@O'
(ttp4725
a(S'I?GAC?_?P?K?C?ooH?'
(ttp4726
a(S'I@??O@Ga?_c?CAcOCO'
(ttp4727
a(S'I@??OGGA?Oc?GATC@G'
(ttp4728
a(S'I?CA?C_?Oc??OC_HI?'
(ttp4729
a(S'I?G?OA?C@?CK??O_@_'
(ttp4730
a(S'I?CA?C@GB???G?O@E?'
(ttp4731
a(S'I?G?O??O@A@@G?P?A_'
(ttp4732
a(S'I?O??_?CACAKGC?D@_'
(ttp4733
a(S'I??@?A@@?GACO?O@I_'
(ttp4734
a(S'I???OA?_OC?_GK?@GO'
(ttp4735
a(S'I?CP????@A@AC?_W?G'
(ttp4736
a(S'I?C????O_c@E??_W?O'
(ttp4737
a(S'I@CG_??????GCO_G?O'
(ttp4738
a(S'I?C??@?O@OIS?CA_?G'
(ttp4739
a(S'I?_??@@@O__?OGQS?g'
(ttp4740
a(S'I?_@?@A??OH?GCAoCW'
(ttp4741
a(S'I???O??_CAC?S?cgcG'
(ttp4742
a(S'I???O@?O_CCaG?`@@_'
(ttp4743
a(S'I???O@GaC?C?SGcWCG'
(ttp4744
a(S'I?G?O@?O?OGG?G`O?O'
(ttp4745
a(S'I?C?OA@Ca?K?HO_o?O'
(ttp4746
a(S'IA?A???C@AA@?O_H@O'
(ttp4747
a(S'I?G?O@@?OA?AH?_@?o'
(ttp4748
a(S'I?O?OO@a??@?S?cgKG'
(ttp4749
a(S'I?C?OG?PAH??G?Qc@G'
(ttp4750
a(S'I???O@?P??Ia?_`@@O'
(ttp4751
a(S'I?CC?C?__OA@EGCgCW'
(ttp4752
a(S'I?O?O??_B?A?H?B@B?'
(ttp4753
a(S'I?G@????QA_?WCO@O_'
(ttp4754
a(S'I?C????G_`COCA_PAO'
(ttp4755
a(S'I???OG`?OOc?GAUC@G'
(ttp4756
a(S'I@??_S?_O?@?GAOcw?'
(ttp4757
a(S'I??A?A?OOK??W?OPI_'
(ttp4758
a(S'I@?@???_?c??CGQKCG'
(ttp4759
a(S'I???O????aCoO?`PA_'
(ttp4760
a(S'I????@?C?_ISAg?@@O'
(ttp4761
a(S'I????A?O_C@AO?OWcG'
(ttp4762
a(S'IAC??@?G?AAO?OOK@?'
(ttp4763
a(S'IA?????C?Q?C@?O[?G'
(ttp4764
a(S'I??????G_G?OCE_@EO'
(ttp4765
a(S'I?C?_CA?A?@CCC?W?W'
(ttp4766
a(S'I@?GO?????ACG_OC?_'
(ttp4767
a(S'IA???????P?OCEAC?G'
(ttp4768
a(S'I?C?_A?qACC?C?_PM?'
(ttp4769
a(S'I?G?O@?O@G?I??TO?g'
(ttp4770
a(S'I?_??A?o??C?CG_P[?'
(ttp4771
a(S'IA?????G?P?OC__W?O'
(ttp4772
a(S'I?G??E?CACACOGO@H_'
(ttp4773
a(S'I?C??C?G@a`T?C?G?_'
(ttp4774
a(S'I?C?OO?cE?A?HOAc?O'
(ttp4775
a(S'I?C@?@?_OSG?OCa_?G'
(ttp4776
a(S'I?G??@?C@??S?CQCAg'
(ttp4777
a(S'I?C????G?a@@@G?KC?'
(ttp4778
a(S'I???_@?O@c@K??WOA_'
(ttp4779
a(S'I?GA?C?o_[??GG?PC?'
(ttp4780
a(S'I?OA?Q_?S?@?W?S@I_'
(ttp4781
a(S'I@??OCO_c?A?GI?Dc?'
(ttp4782
a(S'I?O@?AO?_@Aa??O@@_'
(ttp4783
a(S'I?C??@?GCC@C?g_G?O'
(ttp4784
a(S'I?G?_??_CR?AO?OCO_'
(ttp4785
a(S'IAC?_??C?ACCO?_WO?'
(ttp4786
a(S'I?GC?a?CA??GCQ?C@O'
(ttp4787
a(S'I???_??O_W?E?A_POO'
(ttp4788
a(S'I?C?OK@@A?C?COiOAG'
(ttp4789
a(S'I???_@@@?G@CO?Qc?g'
(ttp4790
a(S'I?O?`@?_E?@G??OSAG'
(ttp4791
a(S'I?C??AA?@A?_HC?@C_'
(ttp4792
a(S'I?C??@@`C?A?Ka@c?O'
(ttp4793
a(S'IA???@?G@A?OCA_@DO'
(ttp4794
a(S'IA???A?O@CAD??O@G_'
(ttp4795
a(S'I?CA_C?_OGC?C?aOQ?'
(ttp4796
a(S'I@???G?Q??A?X?Q`D_'
(ttp4797
a(S'IAC??G?O?CC@C?`GGG'
(ttp4798
a(S'I?C????O@AAR??_HC?'
(ttp4799
a(S'I?C?_G?O@_HA?CA?C?'
(ttp4800
a(S'I?GG?C?C?_GWCQ?O@O'
(ttp4801
a(S'I?C??A???P@WOC_g?O'
(ttp4802
a(S'I?CC?AA??OG?Ki?SCO'
(ttp4803
a(S'I???O@?O@Q?c??cg@G'
(ttp4804
a(S'I???O@?G_CA_?OOKB?'
(ttp4805
a(S'I?C@???GDAAC???HA?'
(ttp4806
a(S'I?CG_C???@@@O?qG?_'
(ttp4807
a(S'I?C????D?QAA?C@K?G'
(ttp4808
a(S'I??@@?_D??_GG?_P?o'
(ttp4809
a(S'I?GOOC??AAA?OCOGA?'
(ttp4810
a(S'I?G?O@?_a@??OCOCAG'
(ttp4811
a(S'I@?A?C?CO_G?GG?DB?'
(ttp4812
a(S'I?O?????@_HCG?QOQ?'
(ttp4813
a(S'IA?????C?QACH??D@_'
(ttp4814
a(S'IA???@?_?SC?S?aWCG'
(ttp4815
a(S'I?_?O@@?`?K?GO[OAG'
(ttp4816
a(S'I?G?OC?C?S?g?O_g@O'
(ttp4817
a(S'I???OC?`?g??WCP@I_'
(ttp4818
a(S'I?C?_H?XAGC?G?Q_D?'
(ttp4819
a(S'I?C@?IOAA@??C?_PIO'
(ttp4820
a(S'I?OA?A?D_H??G?Oc@_'
(ttp4821
a(S'I?G@?gAO?S@_CC?WKG'
(ttp4822
a(S'IA??_??C?QCCO?_WO?'
(ttp4823
a(S'I?C?OG?p??c?G?Z?@G'
(ttp4824
a(S'I@??OA?_?_@APO_HGO'
(ttp4825
a(S'I?G??@?COC@G?K_??o'
(ttp4826
a(S'I?G_O??C@@?A?E_@?O'
(ttp4827
a(S'I????@?H?G@G?K_@Co'
(ttp4828
a(S'I?G?O@?Q?C?A?AQCDG'
(ttp4829
a(S'I?C????O_SCE??_W?G'
(ttp4830
a(S'I???O????aA@B?@@Ao'
(ttp4831
a(S'I?C@?A?OA?_?GA@@H?'
(ttp4832
a(S'I?_@?A???GA@OOO`W_'
(ttp4833
a(S'I?G????C?O@I@O_O?o'
(ttp4834
a(S'I?O??@???`_@CAAGOW'
(ttp4835
a(S'I??@?A???GG?WOOpW_'
(ttp4836
a(S'I?G?O@?__d?@O?OCA_'
(ttp4837
a(S'I?C?OG?PC?K?G?qOE?'
(ttp4838
a(S'I????G?P_h@ACC_G?O'
(ttp4839
a(S'I?C??A?C?OKW?O_o?O'
(ttp4840
a(S'I?G?O@?O?QG?OG`G@?'
(ttp4841
a(S'I??????O_gEC?AO@R?'
(ttp4842
a(S'I???????_PAQICOC?_'
(ttp4843
a(S'I???????_@?OI?Oc@_'
(ttp4844
a(S'I?G?O??O_@?BCA_??O'
(ttp4845
a(S'IAG????O?C@G??OSCg'
(ttp4846
a(S'I?GOO????Q?A?E_@?O'
(ttp4847
a(S'I?CA?C@_??`?G?_@CO'
(ttp4848
a(S'I?C?_WAO_`@QAC?G?O'
(ttp4849
a(S'I?SA_G?O_PAA?CG?O?'
(ttp4850
a(S'I?CG????@@A@C?QK?G'
(ttp4851
a(S'I???O??GCA@C@G_G_O'
(ttp4852
a(S'I?GO???_BAA?C?OCB?'
(ttp4853
a(S'I?C????G?a?@@GOKC?'
(ttp4854
a(S'I???O@?G_?ac@A?@@O'
(ttp4855
a(S'I?G??@G?O?cOW?O@@_'
(ttp4856
a(S'I???P?OA?_cGO?_P?_'
(ttp4857
a(S'I?CC??G_@O@?OO_w?G'
(ttp4858
a(S'I?C??A?G@?`S?C_HGO'
(ttp4859
a(S'I??A?@?O_k??WCO@E_'
(ttp4860
a(S'I?G??C??QC@@O?o_G_'
(ttp4861
a(S'I?OG?G?S_@A?GC?`@_'
(ttp4862
a(S'I?O?O??G?RG?CA?o?W'
(ttp4863
a(S'I?C????CCAAOGW?@?o'
(ttp4864
a(S'I???_???@A@@OO_`o_'
(ttp4865
a(S'I?G?O??_OA@@OGOC?g'
(ttp4866
a(S'I?G??C??OcGAOCO@G_'
(ttp4867
a(S'I???OC?`C?K?G?pOi?'
(ttp4868
a(S'I?GA???Ke?@?CS?CAO'
(ttp4869
a(S'I?G?OI?OB???CCS?M?'
(ttp4870
a(S'I?C@@A?O?u?B?C?G?_'
(ttp4871
a(S'I@??_C?_A?@?OO_`W?'
(ttp4872
a(S'I?C@?@?Ga@G?G?Os?G'
(ttp4873
a(S'I?C@???QAC@?C_`WAG'
(ttp4874
a(S'I?G?_G?OB???CCQ?U?'
(ttp4875
a(S'I???_??I@?_OO?Q@D_'
(ttp4876
a(S'I?O_O??G?`?AC?O[?G'
(ttp4877
a(S'I?G?????CaCCO?O@Q_'
(ttp4878
a(S'I?WA?OG@??C?GOO``_'
(ttp4879
a(S'I???_CG@??cCG?O@`_'
(ttp4880
a(S'I@?D?G?_??@AG_PCoG'
(ttp4881
a(S'I?G???GO@O@F@A?O?g'
(ttp4882
a(S'I?O????S_Sg?C?`G@G'
(ttp4883
a(S'I???OA?G_?`oOOOS?g'
(ttp4884
a(S'I?C?O??P??a_O_`@@_'
(ttp4885
a(S'I?C??A?Q@@?GC?_WQ?'
(ttp4886
a(S'I?G????P?A@BO?O?Cg'
(ttp4887
a(S'I?G??@?O?uG?CI@?@O'
(ttp4888
a(S'I?O?O??SA?_@C?bG?G'
(ttp4889
a(S'I?C??@?G?CA@Co?g?O'
(ttp4890
a(S'I?C?OOO_`?_?S?gWCG'
(ttp4891
a(S'I?OC?QOaA?@?CG_@KO'
(ttp4892
a(S'I?C????O@D?IC?_W?G'
(ttp4893
a(S'IA???@?C?PCOO?aW?G'
(ttp4894
a(S'IA?O???O?`@ACE?WGW'
(ttp4895
a(S'IAC?OA?G?CAG?OOK@?'
(ttp4896
a(S'I?GG?@?C@@?G?A_@@O'
(ttp4897
a(S'I@?G?@?C?OACG_?C?_'
(ttp4898
a(S'I?C?O@?G_GAO?O?KB?'
(ttp4899
a(S'I???O????aCp?A`@AO'
(ttp4900
a(S'I??A???P?W@AGc`@?o'
(ttp4901
a(S'I?C?_??O_GCC?A_@R?'
(ttp4902
a(S'I?C??C?O_@@OCG_W?G'
(ttp4903
a(S'I?O?OA@A??IADA@@HO'
(ttp4904
a(S'I??A?@@?PG_GGCc`?o'
(ttp4905
a(S'I??@?@?G@Q?o??_gD?'
(ttp4906
a(S'I@?G?A?C?_@C?_?G?O'
(ttp4907
a(S'I?????A?CS?CI?a@?o'
(ttp4908
a(S'ICC?OO?O___AEACW?W'
(ttp4909
a(S'I?G?O@?O@a?S??OOA_'
(ttp4910
a(S'I?C@?GGA?`??OC_HQ?'
(ttp4911
a(S'I?G??@?OA?K?D?Q_DG'
(ttp4912
a(S'I@?G?C?C?d?GGA?D@_'
(ttp4913
a(S'I?C??C?`?__?GCPCG_'
(ttp4914
a(S'I?GA?O@R??@?W?O`K_'
(ttp4915
a(S'IG?OOG@A@CAA?A_`@O'
(ttp4916
a(S'I?O?_G?`?Q??OCP__G'
(ttp4917
a(S'I?G?O@?a?B?@OGSC?g'
(ttp4918
a(S'I?C@?CAA?C?CG?_PG_'
(ttp4919
a(S'I?G@?@?OE?@?CAAOEG'
(ttp4920
a(S'I?O?OC?CA?`?GABO?G'
(ttp4921
a(S'I@??OC?_A?@?GGTCGG'
(ttp4922
a(S'IA??????@C@@G?a@Co'
(ttp4923
a(S'I?_@@??CC_@???_HAO'
(ttp4924
a(S'I?C?_c@_A?CGGOO_@?'
(ttp4925
a(S'I????@?OCT?gGG_@?o'
(ttp4926
a(S'I?G????O@?IGC?O_T?'
(ttp4927
a(S'I?G?OG?O@?I?CC@?I?'
(ttp4928
a(S'I?C??G?G@?K?D?_oK?'
(ttp4929
a(S'I?C?_C?GA?_@COOKGG'
(ttp4930
a(S'I?_A?C?OOg??G?OPY?'
(ttp4931
a(S'I?C?OO@`@?A?W?Z?A_'
(ttp4932
a(S'I??A?C?i@?_?C?_P[?'
(ttp4933
a(S'I?G??@?O_C?CCE_@AO'
(ttp4934
a(S'I?C??A?O@C?h??`@A_'
(ttp4935
a(S'I?O_@?@??OGOGG_P?o'
(ttp4936
a(S'I?CG?C???`@@O?qG?_'
(ttp4937
a(S'I@??_GA??OC??O_@?o'
(ttp4938
a(S'IA?????G?Q?C@?_P?o'
(ttp4939
a(S'IA??O@?G?SAG?O?K@?'
(ttp4940
a(S'I?????H@A?E?WOO``_'
(ttp4941
a(S'I?C?OOO?Q?A?MEACAO'
(ttp4942
a(S'I?C?OC?W_GAQ?A?@D?'
(ttp4943
a(S'I?G@?@GOE?@?CA?OEG'
(ttp4944
a(S'I?C?_??O_C@E??_W?O'
(ttp4945
a(S'I???O@?G?g?I@S?@?o'
(ttp4946
a(S'I?CA?C?_PI??C?_oOG'
(ttp4947
a(S'I?_O_C@?CS?G??Oc?g'
(ttp4948
a(S'I?G@???GB?I?C_O@V?'
(ttp4949
a(S'I?C??G?D@?_?S_`W?G'
(ttp4950
a(S'I??@???I@?_OG?Q@D_'
(ttp4951
a(S'I?C?_C?__@??SK_G??'
(ttp4952
a(S'I?G?OG?_OA@AOC_@?O'
(ttp4953
a(S'I?G??@?COACO?AOCBG'
(ttp4954
a(S'I?C?O@?O_`?OO?_WA?'
(ttp4955
a(S'I?G??@?COC?G?K_@?o'
(ttp4956
a(S'I?G@_A?CAA@COGOOO_'
(ttp4957
a(S'I@?C?G?p?OA?C?WcKG'
(ttp4958
a(S'I??A?C?gCi??CG?@SO'
(ttp4959
a(S'I????E?`@H??G?OPI_'
(ttp4960
a(S'I?GA?C?_@@_?C?o?X?'
(ttp4961
a(S'I?O??@?CB?A@C_DGAG'
(ttp4962
a(S'I?C@?A?O?Og?GA@OG?'
(ttp4963
a(S'I?C@?G?G??G?GOOsW?'
(ttp4964
a(S'I?G?O??O?QG?CG`G@O'
(ttp4965
a(S'I?C@???CA?c@C_dG?G'
(ttp4966
a(S'I?O?_C???A?@GOO`o_'
(ttp4967
a(S'I???_??O_P@q?C_@?o'
(ttp4968
a(S'I?C@????@`A@C?QGA?'
(ttp4969
a(S'I?OA????AOE?G?Q_D?'
(ttp4970
a(S'I?C??A?_`C@?S?_wCG'
(ttp4971
a(S'I?GG?G?C@E@@?C@G?W'
(ttp4972
a(S'I?G??C?OOCAB??O@G_'
(ttp4973
a(S'I?G??G?_PCC?K?O?J?'
(ttp4974
a(S'I?C??G@@@?_?S?hGGG'
(ttp4975
a(S'I?O?_g?CCB??CA?C@G'
(ttp4976
a(S'I???_@@?a?B?DEHCAO'
(ttp4977
a(S'I?G?_??OCA@Q??OCC_'
(ttp4978
a(S'I?C??G?P?b@@GI?C??'
(ttp4979
a(S'I?O?OO?_OODQ?__o?g'
(ttp4980
a(S'I?_?P??OC_??W?O@A_'
(ttp4981
a(S'I?GOO???@A@ACE_??O'
(ttp4982
a(S'I?GG?C?CA@G?O?O?HG'
(ttp4983
a(S'I?G?_C?gc?K?CGO@T?'
(ttp4984
a(S'I@?G?????_@GCO_G?O'
(ttp4985
a(S'I???_G?P?GG?CC``GO'
(ttp4986
a(S'I?C?OO?__?C?SGcWCG'
(ttp4987
a(S'I???OA?g`GG?D?_`DO'
(ttp4988
a(S'I???_@@?a?B?DEGCEO'
(ttp4989
a(S'I???OA?PAAG?G?OSe?'
(ttp4990
a(S'I?G@_???Q?_?OCQ@o_'
(ttp4991
a(S'I?G??@?__CI?OCOCE?'
(ttp4992
a(S'I?G`???C?O_C?A_@@O'
(ttp4993
a(S'I?__O??C?OK?GG`O?O'
(ttp4994
a(S'I?C??A?O_P@OO?_w?G'
(ttp4995
a(S'I?G@?I?_C@??C?OCY?'
(ttp4996
a(S'I?C?CC@_@a_?GC@@?_'
(ttp4997
a(S'I?O??A?Ca@G?C?c@BO'
(ttp4998
a(S'I?O?OQPAA?@?GG?DK_'
(ttp4999
a(S'I?CO_@?OAa_@@C?C?_'
(ttp5000
a(S'I?_??A@?D?@?C_SKEG'
(ttp5001
a(S'I?G?_C?_PC@@??OGI?'
(ttp5002
a(S'I?G?O???_OaCO?OC@_'
(ttp5003
a(S'I@???O?QA?A?X?Q`C_'
(ttp5004
a(S'I@??_GO?P?K?C?w_H?'
(ttp5005
a(S'I?C??G?P?__@O?oGK?'
(ttp5006
a(S'IA???G?O?SA?KE?CK?'
(ttp5007
a(S'I?G??@?CADC?WGQ?@_'
(ttp5008
a(S'IA?????G?S?GCOO[?G'
(ttp5009
a(S'I???O@?GOA?_H?_`@o'
(ttp5010
a(S'IA???@?G?Q?C@?O[?G'
(ttp5011
a(S'I?O?_??GOGGAOCQ@O_'
(ttp5012
a(S'I?C@???a?c@?WSA@A_'
(ttp5013
a(S'I?G????o_Sc?C?OGDG'
(ttp5014
a(S'I@?A?E@`@?A?C?W@M?'
(ttp5015
a(S'I???_AAQ?SG?W?OPK_'
(ttp5016
a(S'I?_@?A?C?OH?GS?o?W'
(ttp5017
a(S'I?G?O??_OCG?OK_@GO'
(ttp5018
a(S'I???OA?O@i?P??O@E_'
(ttp5019
a(S'I?G??G?_`CE?C?O@F?'
(ttp5020
a(S'I?O?_O?_E?@?C?QCEG'
(ttp5021
a(S'I?G?OE?_??GAOCS?K?'
(ttp5022
a(S'I?CG?????`?GGE?@?O'
(ttp5023
a(S'I@??_@A?@?G?GOOC?_'
(ttp5024
a(S'I?GA?@@A@?ICC__`PO'
(ttp5025
a(S'I?_?OAO?PI??W?OPA_'
(ttp5026
a(S'I?_?_@?o@Q_O??`O@?'
(ttp5027
a(S'I??@?GG?Ck??CGOKCG'
(ttp5028
a(S'IA??OG@?@?I?D?`@HO'
(ttp5029
a(S'I?CA?H?X?GC?G?Q_D?'
(ttp5030
a(S'I?O?OAA?_@Co??OO?g'
(ttp5031
a(S'I?G??@?CAD_@O?QC?g'
(ttp5032
a(S'I????C?H?O_k?C_H?O'
(ttp5033
a(S'I???_@?OO?`w?C_@?o'
(ttp5034
a(S'I?CG???O@@@GC?_W?G'
(ttp5035
a(S'I?C@?_?_?OH?GC@o?W'
(ttp5036
a(S'I?_?_CB??O@?CC?gCW'
(ttp5037
a(S'I?C??C?P?QAE?C?G?G'
(ttp5038
a(S'I?G@?G?o_G_?C?c@D?'
(ttp5039
a(S'I?_C?OGE?OAAO?TC?g'
(ttp5040
a(S'I?GC?@?_`?K?K?S?F?'
(ttp5041
a(S'I?Go???_?oc?P?OO@_'
(ttp5042
a(S'I?OC?`?G??ACC?OK?G'
(ttp5043
a(S'I?G??@?CBDC?C?QGBG'
(ttp5044
a(S'I?C@???O?_@M??_WO?'
(ttp5045
a(S'I????@?WCGCWG?O@E_'
(ttp5046
a(S'I?C@?AA?_ODp?A?oCg'
(ttp5047
a(S'I???OC?W_?`oGC?@C_'
(ttp5048
a(S'I?C?O@?G_`G?HI?S?O'
(ttp5049
a(S'I??A?C?GO]??OCOg?G'
(ttp5050
a(S'I????@?P?@A_Gg?@@_'
(ttp5051
a(S'I???OC?`?`@g?C_@AO'
(ttp5052
a(S'I?G??@?CA?cS??QC@G'
(ttp5053
a(S'I???O@?O_CAe?A_@@O'
(ttp5054
a(S'I???_C?`?HC@G?O@I_'
(ttp5055
a(S'I?C??AG?@G?AHC?@C_'
(ttp5056
a(S'I?_C?SO?O_@?W?W@I_'
(ttp5057
a(S'I?O?OC?C?`G?GAA@B?'
(ttp5058
a(S'I?OC_GGAC?C?GGP@O_'
(ttp5059
a(S'I?GG???C?PCG?AOC@G'
(ttp5060
a(S'IA?????O@A@CC?_WOG'
(ttp5061
a(S'I?C?_@?C`@?OO?_WA?'
(ttp5062
a(S'I?C?_A?OAR_P?C?G?O'
(ttp5063
a(S'I?GC?@?_`?K?K?T?B?'
(ttp5064
a(S'I???OC???aGo?C`@AO'
(ttp5065
a(S'I?C@?C?G_@?OGAOo??'
(ttp5066
a(S'I????A?O@c?c??OPI_'
(ttp5067
a(S'I?G??@?GA_C@Da?@EO'
(ttp5068
a(S'I?C?_G??@AC@CO_gO?'
(ttp5069
a(S'I?G?_??P??c_C?QGD?'
(ttp5070
a(S'I???_@?O_GCP??_HE?'
(ttp5071
a(S'IA??_C?O?P?G?A_@P?'
(ttp5072
a(S'I?CC?S?C?OACOGeG?_'
(ttp5073
a(S'I?G??G?p?Q@@??OcCG'
(ttp5074
a(S'I?G@???C?_CKG?O@B_'
(ttp5075
a(S'I?C?_??_AAC?O?o_D?'
(ttp5076
a(S'I??A?CAGCGG?C?a@SO'
(ttp5077
a(S'I????G?X?aC@??W@E_'
(ttp5078
a(S'I?C?_C?OOS@GGA?o?G'
(ttp5079
a(S'I??@GAOCc?I?CQ?`@O'
(ttp5080
a(S'I?GA?C@??Q@?CK?gCW'
(ttp5081
a(S'I?G?OGO?S?@?MEACAO'
(ttp5082
a(S'I?C?_C?OOA?QCC_G??'
(ttp5083
a(S'I???OG?o??AACC[CKG'
(ttp5084
a(S'I?CA?@@?O_c?G__P?o'
(ttp5085
a(S'I?OC???CA?_CG?_PGo'
(ttp5086
a(S'I?G??C?CQCA?OCOGI?'
(ttp5087
a(S'I?OC?GGF??ECGGO@@_'
(ttp5088
a(S'I?C?OG@?O__?LIAS?O'
(ttp5089
a(S'I?O??O?CCOA_DQAg?W'
(ttp5090
a(S'I????@?G?h?Q?c?@?o'
(ttp5091
a(S'I?O???@?__@QCA?WCW'
(ttp5092
a(S'I?G??@?C@_KS??Q?B?'
(ttp5093
a(S'I?G??@?C@?KS??Q_@G'
(ttp5094
a(S'I?G??@?CADC?OGQG@G'
(ttp5095
a(S'I?O??@OGOQC?CA?g@G'
(ttp5096
a(S'I?C@?O@CA?C?C_dGAG'
(ttp5097
a(S'I@???COG?q?EO?OG@_'
(ttp5098
a(S'I??@?O@BA?@?SG`GGG'
(ttp5099
a(S'I?C??A?GDCGICQ?C@?'
(ttp5100
a(S'I?C?O@?O_CAAO?`G@?'
(ttp5101
a(S'I@?G?C?_?_@?C?aGCO'
(ttp5102
a(S'I?C?O@?O@A?Q??hG@G'
(ttp5103
a(S'I????A?OOC@GCC_g_O'
(ttp5104
a(S'I???O@A@?GACGc?@?o'
(ttp5105
a(S'I??A?P?QC?A?X?Q_C_'
(ttp5106
a(S'I??@?A?O?g?E??OPW_'
(ttp5107
a(S'I?C??A?OOC@I??_W?O'
(ttp5108
a(S'I@C?_A?O?O?K?G_HOO'
(ttp5109
a(S'I?G@?GOC_W@E?S?o?w'
(ttp5110
a(S'I?O@_G_?_@@?GC?`O_'
(ttp5111
a(S'I?G?O@?Q?CCE??QG@G'
(ttp5112
a(S'I?C?_C?_PCG?G?WOI?'
(ttp5113
a(S'I?G?OC?`?@?@W?O@I_'
(ttp5114
a(S'I?_?OI?C@C?@?O_`GO'
(ttp5115
a(S'I???_@?OO[?H?G_@?o'
(ttp5116
a(S'I?G?OG?o_GC?C?cOE?'
(ttp5117
a(S'I?C??A?OaC@@G?OcC_'
(ttp5118
a(S'I???OC?Q?aAQ??O@D_'
(ttp5119
a(S'I???_@?GO?`g@A?O?O'
(ttp5120
a(S'I?G?OG?o??AACCSCKG'
(ttp5121
a(S'I??@?EAA?c?CC?OGH?'
(ttp5122
a(S'I?O?OA@@@?I?CA@@J?'
(ttp5123
a(S'I?C@?@?`??a?SCAGCG'
(ttp5124
a(S'I?_?_@?oC?@@@?QCEG'
(ttp5125
a(S'I?GG????A@C?C?OKHG'
(ttp5126
a(S'I?OC?WO?OO_?S?gGGG'
(ttp5127
a(S'I?G????pAAE?C?O@F?'
(ttp5128
a(S'I?G@?@A?_@G?CA_@@O'
(ttp5129
a(S'I???_CO?A@@g??OSAG'
(ttp5130
a(S'I?_?OG?D??a?OOa@@O'
(ttp5131
a(S'I?G?O??O?QG?KI@?@O'
(ttp5132
a(S'I??@?@?_OSG?OCa__G'
(ttp5133
a(S'I?C?_@?_@@C@?__o?_'
(ttp5134
a(S'I?_@?@?C?_@I?S?W?W'
(ttp5135
a(S'I?C?????_PAOGK?@?o'
(ttp5136
a(S'I?G??A?_`@??OCS@a_'
(ttp5137
a(S'I???OC@GaK??WGO@C_'
(ttp5138
a(S'I?C?OG?XAGC?G?Q_D?'
(ttp5139
a(S'I?G?_@?P?A?B??OCC_'
(ttp5140
a(S'I?C??C?_?_@ACCeGCO'
(ttp5141
a(S'I?G@?@?__`@@O?S?A_'
(ttp5142
a(S'I?O?_O?_A?_?C?PC@G'
(ttp5143
a(S'I?C?OC?c_?g?GCDC?G'
(ttp5144
a(S'I?O?_??oAaA?C?O@F?'
(ttp5145
a(S'I?G@???C?ODJ?A@O?g'
(ttp5146
a(S'I???O@A?@A?OAA@O?G'
(ttp5147
a(S'I?G??C??A?K?GOS`h?'
(ttp5148
a(S'I@??_E?CA?ACOGO@H_'
(ttp5149
a(S'I?G@????_@B@OGOGO_'
(ttp5150
a(S'I????@?X?gCI??O@D_'
(ttp5151
a(S'I?_??E??ACA?OGP@h?'
(ttp5152
a(S'I?CG???G@@?GGA?P?O'
(ttp5153
a(S'I?G????W_SAAO?O@D_'
(ttp5154
a(S'I?G?O??O@aAS??O@B_'
(ttp5155
a(S'I???OG?c@kC?G?R?B?'
(ttp5156
a(S'I??@?@?GO?cw??OO?g'
(ttp5157
a(S'IA???A?O?P?OCE_@GO'
(ttp5158
a(S'IA???C?_?cC@G?P@G_'
(ttp5159
a(S'I???OG?H?GC@GA?DM?'
(ttp5160
a(S'IA???C???`@@O?qGO_'
(ttp5161
a(S'I???_C?_OC@g??OSAG'
(ttp5162
a(S'I?C??@?G?_GS?c?@AO'
(ttp5163
a(S'I?G@????OQ_@O?oGO_'
(ttp5164
a(S'I?O?_???@?GCG?Q@R?'
(ttp5165
a(S'I????C?D?GAM?COC?g'
(ttp5166
a(S'I?G?OC?_AC??OO_`h?'
(ttp5167
a(S'I?OA?A?D?a@A?S?WAO'
(ttp5168
a(S'IA?A?A?CoCC@?A_PAO'
(ttp5169
a(S'I?C?_AAO?SCD?a?O?_'
(ttp5170
a(S'I?C?_AGA@@G?W?OPQ_'
(ttp5171
a(S'I?O??O?`OODAG?gOG_'
(ttp5172
a(S'I???_@?O@??w?CPGAG'
(ttp5173
a(S'I??A?@@?P?_gGCc`?o'
(ttp5174
a(S'I??@?A?_OM??CCOKAG'
(ttp5175
a(S'I??@?A@?QI??W?O`O_'
(ttp5176
a(S'I???O@?D?@C_O?aWAG'
(ttp5177
a(S'I?O?_@?CA?`@?a@O?W'
(ttp5178
a(S'I?C??G?P@?_@C?`GGG'
(ttp5179
a(S'I?C?_A?C_C@AOO_W?O'
(ttp5180
a(S'I?G?OC?`?aG?CC_@EO'
(ttp5181
a(S'I????A?C?_HQAo?O?O'
(ttp5182
a(S'I??@?AA@?GA@O?O@K_'
(ttp5183
a(S'I????@A?_@?_DA?S?G'
(ttp5184
a(S'I???OA?O_GEQ??O@D_'
(ttp5185
a(S'I???OC???aAo?E@@AO'
(ttp5186
a(S'I???_O?_D?@?LAHCI?'
(ttp5187
a(S'I????@?G@?EY??W@D_'
(ttp5188
a(S'I?_@?E????GCGGOPw?'
(ttp5189
a(S'I????@?G@?IWAO?@B?'
(ttp5190
a(S'I?CA?@?CS?I?PCAc?G'
(ttp5191
a(S'I????A?C?aCSO?W@B_'
(ttp5192
a(S'I???_C?_BL??G?OPI?'
(ttp5193
a(S'I?O?OA?CB?@@G_@_?_'
(ttp5194
a(S'I@?@?C?AA?a@COSGGG'
(ttp5195
a(S'I?C??C?G@OGW??_oC?'
(ttp5196
a(S'I??A?CGCCk?A?O_@?o'
(ttp5197
a(S'I?G??@?C@C?g?S_`?o'
(ttp5198
a(S'I?C@???C@?GGC?`o?G'
(ttp5199
a(S'I?C??G@@O?C?SGgWGG'
(ttp5200
a(S'I??A_??C@GGGCO_`PO'
(ttp5201
a(S'I@?A?O?Q?OA?X?Q_C_'
(ttp5202
a(S'I?C?_??E?@CGO?_WQ?'
(ttp5203
a(S'I?G@?@@_O__OCa?OAO'
(ttp5204
a(S'I?G`?O?K?S_e?C?G?o'
(ttp5205
a(S'I?O@_H?_O?a@??Q?o?'
(ttp5206
a(S'I?CA?HOA@@A@??QCAG'
(ttp5207
a(S'I?SC?Q?_O?@?OGgGW?'
(ttp5208
a(S'I?CC?A?G@O@J?Q?C?_'
(ttp5209
a(S'I?Ga?CB??W@?DG?WCW'
(ttp5210
a(S'I?G?OG?`?aC?C?OCF?'
(ttp5211
a(S'I?G?OC?O_?aOG?O@D_'
(ttp5212
a(S'I?G?OG?q?A@@?GSCCG'
(ttp5213
a(S'I?C@?A?__?g?O?sOC?'
(ttp5214
a(S'I?G@?K?g?O@?CG?OK?'
(ttp5215
a(S'I?C????G_CAC?K?H?O'
(ttp5216
a(S'I???OC?__?a?SCCGcG'
(ttp5217
a(S'I?C@?A?X?A?`??OGE?'
(ttp5218
a(S'I?C?_A?COA?QAC?C?_'
(ttp5219
a(S'I?G??@?_CT?AO?QC?g'
(ttp5220
a(S'I?O?OC?CA?H?GGBO?G'
(ttp5221
a(S'I?O?_@?G?_g?Ca?@DO'
(ttp5222
a(S'I?C??@?CCCCCO?ag?G'
(ttp5223
a(S'I?C?O??K?ag?HQ?S?O'
(ttp5224
a(S'I?O?_C?C?QG?CO?g@G'
(ttp5225
a(S'I?G@?WPAA?C?GOO`G?'
(ttp5226
a(S'I?C@?@?_O?a@O?aGO?'
(ttp5227
a(S'I?C@?@?CQCG?OCa_?G'
(ttp5228
a(S'I?C?_A?C@?CK?A?_@?'
(ttp5229
a(S'I@?G_C?CAB?OO?OG@G'
(ttp5230
a(S'I??A?C?H?@_?W?OPg_'
(ttp5231
a(S'I???_@A?_@CoO?OG@G'
(ttp5232
a(S'I?????GE@?`SGC_@?o'
(ttp5233
a(S'I?G?O_OA?A@CO?OS?g'
(ttp5234
a(S'I@C?_C?_A???OO_`W?'
(ttp5235
a(S'IAC????C?A?C@?O[?G'
(ttp5236
a(S'I??????C_@?_D??w?W'
(ttp5237
a(S'I@?A?P?Y??A?P?Q_C_'
(ttp5238
a(S'I?G?OBA@?@C_O_?G@?'
(ttp5239
a(S'I?G?OG@@@?@?W?QOE_'
(ttp5240
a(S'I??C?C?aP?@AC?aWOG'
(ttp5241
a(S'IAG??@?C?A?C@?OK@G'
(ttp5242
a(S'IAC??@?C?@COO?aW?G'
(ttp5243
a(S'I@C?OC?_A???GGTCGG'
(ttp5244
a(S'I???_@?`?QC?W?X_@_'
(ttp5245
a(S'I?O@??@AA?A@C_PGQG'
(ttp5246
a(S'I?G??C?`?QG?CC__CO'
(ttp5247
a(S'I@?COG?q?__?C?SCKG'
(ttp5248
a(S'I?C@@A?OEE??GC?`?_'
(ttp5249
a(S'I?_?OO?SB?_G??dO?G'
(ttp5250
a(S'IAC?OA?G?A?C@??K@?'
(ttp5251
a(S'I???O@?I?A?C@??o?o'
(ttp5252
a(S'I?GC?`????CCO?_@?_'
(ttp5253
a(S'I??@?O@CB?A?E?RGQG'
(ttp5254
a(S'I?C@?????PG?S_cg@G'
(ttp5255
a(S'I?C?OG?OBCA?G?Q_D?'
(ttp5256
a(S'I?C??A?C@?KW??POAG'
(ttp5257
a(S'I?G????_`@??WCO@Q_'
(ttp5258
a(S'I??????C_PC_GASc@G'
(ttp5259
a(S'I?G?OG?p?a@@??OCE?'
(ttp5260
a(S'I?C????G?a@QOC_HCO'
(ttp5261
a(S'I?C?OA?_?c?AQO_HHO'
(ttp5262
a(S'I?SA_G?OOA??C?g_P?'
(ttp5263
a(S'I?C?__@@?G?GCO_G?O'
(ttp5264
a(S'I?G?OO@a@?@?S?cgKG'
(ttp5265
a(S'I?G?_@?`@AC?C?OGF?'
(ttp5266
a(S'I?G??I?OS?C?CIC@h?'
(ttp5267
a(S'I@?E?CG?O_@?GI?Do?'
(ttp5268
a(S'I?O?_??GCW?OOGA@C_'
(ttp5269
a(S'I?G?O_??@@?@G?OC?_'
(ttp5270
a(S'I?G?OA???P@I?E?C?O'
(ttp5271
a(S'I?C?_@?_@@C@?__g@?'
(ttp5272
a(S'I?G??A?OCCCI??O@C_'
(ttp5273
a(S'I???_@?pAIC?G?O`D?'
(ttp5274
a(S'I?CA?@?CCc?AO_`G?O'
(ttp5275
a(S'I???OGGRC?@CGAOSAG'
(ttp5276
a(S'I?G?OGG?S?KAC?SC@G'
(ttp5277
a(S'I?GOO???@A?ACE_@?O'
(ttp5278
a(S'I????AOE?_cCO?O@H_'
(ttp5279
a(S'I@?G?@?G@B?OGA?D@_'
(ttp5280
a(S'I?C??A?__SC?SO_w?G'
(ttp5281
a(S'I????@?O@cAK??W@B_'
(ttp5282
a(S'I?G@????_`@@OGOGO_'
(ttp5283
a(S'I???OC?`?aG?CCg@EO'
(ttp5284
a(S'I?G??C?_BD??G?OPi?'
(ttp5285
a(S'I????@?CC?Gg@O?c?G'
(ttp5286
a(S'I?C??A?O@A@Q??_WC?'
(ttp5287
a(S'I?C?_??O@A_P??_HC?'
(ttp5288
a(S'I?O?OO?hA?D?C?gOM?'
(ttp5289
a(S'I????C?H?OKa??a@D?'
(ttp5290
a(S'I?G@???C?O@K?G_O?o'
(ttp5291
a(S'I?C?_C?`?G?ACCaGCO'
(ttp5292
a(S'I?O????S?Qg?D?hG@G'
(ttp5293
a(S'I?G?OG?O?Q@@GI@??O'
(ttp5294
a(S'I???_@?_O?`@P?YC?g'
(ttp5295
a(S'I?G?OA_@?@CAO?OOG_'
(ttp5296
a(S'I?O?_C?g?OG?CC?_K?'
(ttp5297
a(S'I?C??@?H@?_GO?_WC?'
(ttp5298
a(S'I?G????O_O_S?C_H_O'
(ttp5299
a(S'I?OGOQ?G???CC?OK?G'
(ttp5300
a(S'I??????W_WAAO?S@D_'
(ttp5301
a(S'I?O????C?_CKG?S@B_'
(ttp5302
a(S'I?G??@???OAE@__@@o'
(ttp5303
a(S'I?C?OC?_OCA?GE?cG?'
(ttp5304
a(S'I??@_???OgG?OCQ@Q_'
(ttp5305
a(S'I?G?O???CaCCO?O@A_'
(ttp5306
a(S'I?G?_@?`C?EGOOO``_'
(ttp5307
a(S'I?_@?I_@?`C?C?O@J?'
(ttp5308
a(S'I?OC?Q?eA?@?OG`?W?'
(ttp5309
a(S'I?C?O@?_BAA?HC@_?O'
(ttp5310
a(S'I???_C?WA?`g?C?@S?'
(ttp5311
a(S'I?CC???_`?@?GAPSAG'
(ttp5312
a(S'I?G?OC?__?g?CC_@CO'
(ttp5313
a(S'I@?A?C?C?O?CGKe@?o'
(ttp5314
a(S'I?C?OA?__PA@P?_g?O'
(ttp5315
a(S'I?G????CPACP??_Ha?'
(ttp5316
a(S'I?G?O@?O_CAAO?P?@_'
(ttp5317
a(S'I?G??@?O_C@AO?PO?g'
(ttp5318
a(S'I????@?C@?AU?CYC?g'
(ttp5319
a(S'I?G@?@?OB?A@C?QGEG'
(ttp5320
a(S'I?G??@?G@?EY??O@D_'
(ttp5321
a(S'I?C??A?C@?`W?E@C?G'
(ttp5322
a(S'I????@?H?G?IGSOC?_'
(ttp5323
a(S'I?C?_???_`@ACC_G?O'
(ttp5324
a(S'I?C??C?GOC@@O?qg?_'
(ttp5325
a(S'I?C@?a?_CAG?C?cOCO'
(ttp5326
a(S'I????@?P?WaK?A_@@O'
(ttp5327
a(S'I???_G?OO[G?CG_OGO'
(ttp5328
a(S'I?C?_O?C?_G?KY?C@O'
(ttp5329
a(S'I?CA?C?OC@@?C?_WAG'
(ttp5330
a(S'I?O?_OA_C?@?C?OKKG'
(ttp5331
a(S'I?O??A@@?OI?CI@@HO'
(ttp5332
a(S'I?O??_?GC?@SCA?WGW'
(ttp5333
a(S'I?C?_??O_OaC?A_@@O'
(ttp5334
a(S'I????@?_@A?_DC@_?G'
(ttp5335
a(S'I?O?_@?_Ab??C?_@BO'
(ttp5336
a(S'I?C?_G?O_@?ACC_G?O'
(ttp5337
a(S'IAC??A?O?@?OCE_@GO'
(ttp5338
a(S'I?O?_??H??H_?KA@CO'
(ttp5339
a(S'I?CA?I??@GC?CO_`X?'
(ttp5340
a(S'I?C?_@@?PC?GO?og?_'
(ttp5341
a(S'I?_@?C?A??a@COSGGG'
(ttp5342
a(S'I?G??@?O_C@CCE_?AO'
(ttp5343
a(S'I?C????O?QA@CGdG?O'
(ttp5344
a(S'I?CO_???@?_GOCOG?G'
(ttp5345
a(S'I????C?X?Q@aGC?@C_'
(ttp5346
a(S'IG?@?G?U?dAA?C?HB?'
(ttp5347
a(S'I?G?W?GPA?K?C?pOB?'
(ttp5348
a(S'I?G?_G?p?A@@??OCE?'
(ttp5349
a(S'I?G??@?O@c?L??O@A_'
(ttp5350
a(S'I?O????oAaA?C?S@F?'
(ttp5351
a(S'I?_?_CA?_G??W?OPS_'
(ttp5352
a(S'I?G??@?C@?EU??Q?@_'
(ttp5353
a(S'I?G??@?CADG?OGQC@G'
(ttp5354
a(S'I?G?_??C@?_L??OCO_'
(ttp5355
a(S'I?C?_??OO?GI??_POO'
(ttp5356
a(S'I?O?_??GQGG?OCQ@Q?'
(ttp5357
a(S'IGC@?G@PO?A_GG?`@_'
(ttp5358
a(S'I@?@?`?GC@?OCAAG?W'
(ttp5359
a(S'I?C??A?P?A?C?G_X?O'
(ttp5360
a(S'I???O@?H?A?CA?O[AG'
(ttp5361
a(S'I???O@?O_@AOIG?@@_'
(ttp5362
a(S'I?C?c?HAA?C@CA`?AO'
(ttp5363
a(S'I???_@O?P?Kg??O_@G'
(ttp5364
a(S'I?O?_@?GC?IACa?@DO'
(ttp5365
a(S'I?C??AA?_@?OCE?C?G'
(ttp5366
a(S'I?C?OA?`?aC?S?_WE?'
(ttp5367
a(S'I?G??I@?O?C@CIC@gO'
(ttp5368
a(S'I?C?O??P?`?_O?_WI?'
(ttp5369
a(S'I?O??I?_C@??C?c@IO'
(ttp5370
a(S'I?CA@OA?_?A?PCWc?g'
(ttp5371
a(S'I?C?OA?_@S_GOS_g@?'
(ttp5372
a(S'I??@?A?Q?c?E?CO@G_'
(ttp5373
a(S'I?G??@?CADC?W?Q_@_'
(ttp5374
a(S'I?C?_G?p??c?C?gOK?'
(ttp5375
a(S'I?_A?C_?Oa@A?C_@OO'
(ttp5376
a(S'I??C?G?D@?__GSa`?o'
(ttp5377
a(S'IA???@?C?a?C@?OK@G'
(ttp5378
a(S'IAC??@?G?CAGGO?D@_'
(ttp5379
a(S'I?C?_@?O??CK?G_WO?'
(ttp5380
a(S'I?O?_@?GB?I?C_?@F?'
(ttp5381
a(S'I????@?G@_KW??W@F?'
(ttp5382
a(S'I?O??G@H?O_?S?gGK?'
(ttp5383
a(S'I?CA?O?YC?A?P?Q_C_'
(ttp5384
a(S'I?C?OG@CE?A?OgDC?G'
(ttp5385
a(S'I?C?O@?O@??I?CdG?G'
(ttp5386
a(S'I?G@?C?GB?I?C?O@N?'
(ttp5387
a(S'I?G@?K?g????CGOP{?'
(ttp5388
a(S'I?G??A?o_CG?C?OCF?'
(ttp5389
a(S'I?G?OG@?COC?CYE??W'
(ttp5390
a(S'I??A?I?OCH??C?_`WO'
(ttp5391
a(S'I???OG?OA\\??G?Qc@G'
(ttp5392
a(S'I?C?OA@?C_COGY?DG_'
(ttp5393
a(S'I?O?O@A?_@G?S?kG@G'
(ttp5394
a(S'I?G?O@_@?@CAO?QO?g'
(ttp5395
a(S'I???OG@?O?C?SGcWgG'
(ttp5396
a(S'I???O@?G_?Ia@O?@@O'
(ttp5397
a(S'I?GA???_@A?@CO_`oO'
(ttp5398
a(S'I?C@?@?COCGAOCaG?G'
(ttp5399
a(S'I?G?OO?_P?@ACaCO?W'
(ttp5400
a(S'I@?G_??O??@GC?OKCG'
(ttp5401
a(S'I?C@???CA?`@O_dG?G'
(ttp5402
a(S'I?C????O@AAQ??_HD?'
(ttp5403
a(S'I?C?OC?_AC??GGXCHG'
(ttp5404
a(S'I??C?@?_P?DAGAAOoG'
(ttp5405
a(S'I????@?GAEC?W?W`D_'
(ttp5406
a(S'IAC??@?G?A?C@?O[?G'
(ttp5407
a(S'I???_@?P?G@@O?R_?g'
(ttp5408
a(S'I?C??@?G?Q?S?E?c?G'
(ttp5409
a(S'I?GC?C@_B?@?C?a_s?'
(ttp5410
a(S'I?_@?@?XoG@@?G?o?g'
(ttp5411
a(S'I?G??C?`?aG?CK?@CO'
(ttp5412
a(S'I???O??GOGAH@G?@?o'
(ttp5413
a(S'I?_@?OAG??@?G?OC?_'
(ttp5414
a(S'I?C??A?G@?@U?C_HGO'
(ttp5415
a(S'I?_@?@?C?_`G?S?W?W'
(ttp5416
a(S'I????@?C@DAg?A_`@O'
(ttp5417
a(S'I??????Q?`?GCA_PQO'
(ttp5418
a(S'I?G??G?Q??`?X?QOC_'
(ttp5419
a(S'I?_A_C??@A??CO_`p?'
(ttp5420
a(S'I???O??G@?KK??SOaG'
(ttp5421
a(S'I?C?_O?C@?_@CQ?G?W'
(ttp5422
a(S'I?CA?CA??`@?CC?W?W'
(ttp5423
a(S'I?G@???Ca?`D?C?C?g'
(ttp5424
a(S'I?G?OC?CA?G?COa_@O'
(ttp5425
a(S'I?GO???C@A@ACE_??O'
(ttp5426
a(S'I?C?_G?OA?C?G?R?B?'
(ttp5427
a(S'I??A?C?GOK@@GGOCG_'
(ttp5428
a(S'I???O@AA?`COO?QO?g'
(ttp5429
a(S'I????G?Q?__?X?Q@D_'
(ttp5430
a(S'I??????G?a@QAS?@?o'
(ttp5431
a(S'I?G?OG?DAGC?COaOAO'
(ttp5432
a(S'I?C?_@?OOA?OO?_WA?'
(ttp5433
a(S'I?O?OG?g?R@@@G?o?W'
(ttp5434
a(S'I?C@?A?GB?@@GO?`G_'
(ttp5435
a(S'I?C?OA?PAAG?G?OSE?'
(ttp5436
a(S'I???O????aCo?A`PAO'
(ttp5437
a(S'I??A?@?QA?a?C_`@PO'
(ttp5438
a(S'I?O??G@@C_@?W?Q@E_'
(ttp5439
a(S'I?C?O@?H?aCCO?_WA?'
(ttp5440
a(S'I?OO_@???a?AC?OK@G'
(ttp5441
a(S'I?G@???_?b@B?C?@?o'
(ttp5442
a(S'I????A?A@?_CCA_PWO'
(ttp5443
a(S'I@C?OA?_?_?APO_HGO'
(ttp5444
a(S'I??@?A?CO?cw??OG@G'
(ttp5445
a(S'I?CA?A?P?AG?G?OSE?'
(ttp5446
a(S'I????@G?OG@AHC_@?o'
(ttp5447
a(S'I?G@?G?_O?c?C?_@H?'
(ttp5448
a(S'I?OA?OA?_?@?S?gWSG'
(ttp5449
a(S'I?GA?C?_PI??C?_PQ?'
(ttp5450
a(S'I?OA?IAA?@@?CC_@WO'
(ttp5451
a(S'I?OA?G?O_PA?G?S_`?'
(ttp5452
a(S'I???OG?OS?K?CGcOgG'
(ttp5453
a(S'I?CC?C?_c?A?CGSKCG'
(ttp5454
a(S'I???OA?P??ccGA?@H?'
(ttp5455
a(S'I?O??O?`O?@?SGgWGG'
(ttp5456
a(S'I?GA?O@QA?A?P?Q@E?'
(ttp5457
a(S'I????@?C@DAgO?_`@_'
(ttp5458
a(S'IAG?OG@???K?COSCHG'
(ttp5459
a(S'I?G?OG@?PC??O?q?A_'
(ttp5460
a(S'I?C??A???PCWO?Og@G'
(ttp5461
a(S'I?G?_@?C_@COO?O_@_'
(ttp5462
a(S'I?CA?OGH?PCAO?WO?g'
(ttp5463
a(S'I?C?_C?_AA@?OC__C?'
(ttp5464
a(S'I?C?OC?`?AA?GE?cC?'
(ttp5465
a(S'I??????C?QAQOCXC?g'
(ttp5466
a(S'I???OC??AKA?WOO`H_'
(ttp5467
a(S'I?C?_BOA?@CAO_?O?_'
(ttp5468
a(S'I?CA?C?e@CA@??R?AG'
(ttp5469
a(S'I?O?OA@?a?H?G?OsCG'
(ttp5470
a(S'I?CA?C?GQC@?GC?cG?'
(ttp5471
a(S'I?G?O@A@?AACO?OC@_'
(ttp5472
a(S'I?G??@G?OC@AO?OS?g'
(ttp5473
a(S'I?G@???C?_@K?C_@Ao'
(ttp5474
a(S'I?CC?G?p?_c?C?WOKG'
(ttp5475
a(S'I?C?_G?D?GCAO_PG@G'
(ttp5476
a(S'I????A?C_@?OI?Oc@_'
(ttp5477
a(S'I??A?C?C?W?CGKe@?o'
(ttp5478
a(S'I?C??A?GOC?GAK?H?O'
(ttp5479
a(S'I?O?_@?CAC?COGYO?g'
(ttp5480
a(S'IA?????G?Q?OCE_@CO'
(ttp5481
a(S'IA??O??G?a?C@E?@?O'
(ttp5482
a(S'I???OCOGEI??WGO@C_'
(ttp5483
a(S'I?G?OG?OBCA?C?Q?F?'
(ttp5484
a(S'I?C?_@?O`@?OC?_WA?'
(ttp5485
a(S'I?C?OA?GOA?O?E?CA?'
(ttp5486
a(S'I?G?OG?P?@A?CK?GGO'
(ttp5487
a(S'I@?GOC?GAB?OO?OO?g'
(ttp5488
a(S'I????@?O_CA`O?_HE?'
(ttp5489
a(S'I?C?OA?I?A?C@??KB?'
(ttp5490
a(S'I?O????COCA@O?qGa_'
(ttp5491
a(S'I?C@G_@O?OHSGA?oGG'
(ttp5492
a(S'I?C@???G?a@@GI?DC_'
(ttp5493
a(S'I?C@?_B??OHOGAGSKG'
(ttp5494
a(S'I????A?P?__cCE?@GO'
(ttp5495
a(S'I@G@?@?CA??COGU??g'
(ttp5496
a(S'I?G?_@A?_C?CO?OC@_'
(ttp5497
a(S'I?C??A?O@C?g?C`@A_'
(ttp5498
a(S'I?C?_CAOC@AH?A?@?_'
(ttp5499
a(S'I?C??A?C@?GW?CPCAG'
(ttp5500
a(S'I?G??C?_?_@@OGP?W_'
(ttp5501
a(S'I?G??C?G?OgKDA?O@O'
(ttp5502
a(S'I?GC?A?C@?_CO_OG@_'
(ttp5503
a(S'I?G??@?CAD?@OGQC?g'
(ttp5504
a(S'I?_C?BOI?P?A?w?S?o'
(ttp5505
a(S'I?OA?A?D?g@I?S?WAO'
(ttp5506
a(S'I?OA?I_@@@A?C?O@J?'
(ttp5507
a(S'I?G?OG?_`G??CCSCEG'
(ttp5508
a(S'I?CA?a?OAEC@??OOCG'
(ttp5509
a(S'I?C??C?G@?IQ?C?@K?'
(ttp5510
a(S'I?O?OO?_?_COGg@PA_'
(ttp5511
a(S'IA?A?@@?O?CGGGcP?o'
(ttp5512
a(S'I?C?OGO?PAA@O?WGAG'
(ttp5513
a(S'I?G?OGAQ?A@@O?T??g'
(ttp5514
a(S'I?C????S_SG?OC`g?G'
(ttp5515
a(S'I??C?C?_P?@AC?aWoG'
(ttp5516
a(S'I?G_O??OA?_@W?O@C_'
(ttp5517
a(S'I??A?C?GoK??CGOK@G'
(ttp5518
a(S'I?G??G?`?QC?C?OcDG'
(ttp5519
a(S'I?O?_?G_E?@?C?OSEG'
(ttp5520
a(S'I??????W_WCQG?O@D_'
(ttp5521
a(S'I?G?OCA@?@G?C?aG@O'
(ttp5522
a(S'I??A?I??@G@?CS_`WO'
(ttp5523
a(S'I?C??A?OOGCAGA?@X?'
(ttp5524
a(S'I?C??@?P?aCC??_HB?'
(ttp5525
a(S'I????@?H?A?CA?_`@o'
(ttp5526
a(S'I?C?OO?_o?IAOCSC?G'
(ttp5527
a(S'I@???G?Q?_`?X?QOC_'
(ttp5528
a(S'I?O?OC???`@@GAA@A_'
(ttp5529
a(S'I?C?O??__`A@P?_HAO'
(ttp5530
a(S'I?C??A???PCW?AOc@G'
(ttp5531
a(S'ICC__G?O?OAPAG?g@O'
(ttp5532
a(S'I?C?_C?c_?g?OC`?O?'
(ttp5533
a(S'I?CA?H_?PCA@??QCAG'
(ttp5534
a(S'I?O?OPOaC?C?CGaGCG'
(ttp5535
a(S'I??@?@?_O?a@O?QGoG'
(ttp5536
a(S'I????A?GOC@AQC?@G_'
(ttp5537
a(S'I?G??A?E?QCCO?S_@_'
(ttp5538
a(S'I?C?O??GA@?H@G?C?G'
(ttp5539
a(S'I@?A_??C@?GGCO_`PO'
(ttp5540
a(S'I???_??Q?@?GCE_@QO'
(ttp5541
a(S'I?C?_C?`?G??C?agDO'
(ttp5542
a(S'I????@?G_G?OCOO[AG'
(ttp5543
a(S'I?O??A?CPE?`??OGAG'
(ttp5544
a(S'I?O?_G?C?QC?CO?g@G'
(ttp5545
a(S'I????@?C?d?BA__@?o'
(ttp5546
a(S'I?GC??G_P?EACAC@`?'
(ttp5547
a(S'I???OG?q?__?CCSCKG'
(ttp5548
a(S'I???OG?OA[C?G?R_@G'
(ttp5549
a(S'I????H?XAGC?G?Q_D?'
(ttp5550
a(S'I????C?_?_@ACCeGcO'
(ttp5551
a(S'I?G?OCAA?@@OO?QO?g'
(ttp5552
a(S'I?C?O@?OOA?AGECC?G'
(ttp5553
a(S'I?C?O@?G_@?OGK?C?_'
(ttp5554
a(S'I?G?OG?O?QA@CI@??O'
(ttp5555
a(S'I?G?O@?O@A?@GA@?A?'
(ttp5556
a(S'I?C?CC?K@a_D?C?G?_'
(ttp5557
a(S'I????@?CA?aSA__@@O'
(ttp5558
a(S'I?GC?`?C??CC?A_@?O'
(ttp5559
a(S'I?G@?@?CE?@?Cc@GAW'
(ttp5560
a(S'I?G?OG?_@?A?OCQ?E?'
(ttp5561
a(S'I?C??@?G?OGS?c?c?G'
(ttp5562
a(S'I?C?_C?O_@?AGA?@P?'
(ttp5563
a(S'I????@?COC?_C_?w?W'
(ttp5564
a(S'I?G@?GO__gC?C?O@F?'
(ttp5565
a(S'I?C?OC?OOC?AC?aW?G'
(ttp5566
a(S'I@?A?PO?OOAAO?YC?g'
(ttp5567
a(S'I??A?CGGC[?AGOOC?_'
(ttp5568
a(S'I???OG?cDK??G?RCAG'
(ttp5569
a(S'I??A_S@?A?A?OGP@w?'
(ttp5570
a(S'I?OA?a@C????G?OC?_'
(ttp5571
a(S'I???_A@?OGCOO?O@I_'
(ttp5572
a(S'I?O?O@AA?CG?S?bG@G'
(ttp5573
a(S'I?G??G?OBC@?C?QOEG'
(ttp5574
a(S'I?G?O??_`C??CC_gCO'
(ttp5575
a(S'IAC?O@?G?CAG?O?K@?'
(ttp5576
a(S'I?_A?@@?OOa?O_c@@O'
(ttp5577
a(S'I?G??C?h@?g?C?O@L?'
(ttp5578
a(S'I?O?OO?`C?A?CAa@EO'
(ttp5579
a(S'I????@?CA?CWAO?o?G'
(ttp5580
a(S'I?C?OG?o??@AGCf??O'
(ttp5581
a(S'I?G?O??_`@??WCO@A_'
(ttp5582
a(S'I?G@?g@O?W@OCA?oKG'
(ttp5583
a(S'ICG@?D@??W@Y?A?o?g'
(ttp5584
a(S'I?C?_@?P?@?GO?_WA?'
(ttp5585
a(S'I???_C?_PKG?G?OPI?'
(ttp5586
a(S'I?C?OC?`?AG?GCPc?G'
(ttp5587
a(S'I?C?_A?D@GGGCO_g@O'
(ttp5588
a(S'I?C?_G?P??g?C?`OGO'
(ttp5589
a(S'I?G@?@?_O?`@O?U??g'
(ttp5590
a(S'I?C??A?C_CAAOO_H@O'
(ttp5591
a(S'I?C@?@?G@@GIGC?P?_'
(ttp5592
a(S'I??@?C_HA@G?G?OPI?'
(ttp5593
a(S'ICC`?O?_?c__GC?DA_'
(ttp5594
a(S'I@?W?G?O?Q??H?_P?o'
(ttp5595
a(S'I?O?`?O?_W@?CE?g?W'
(ttp5596
a(S'I?G??@?C@?CT??Q_?g'
(ttp5597
a(S'I????@?C@eCcG?O@B_'
(ttp5598
a(S'I?C?OO@?Q?A?LAAc?O'
(ttp5599
a(S'I?OC?Q_?Q?@?OG_@W_'
(ttp5600
a(S'I?O??GOCS?@?S?gWIG'
(ttp5601
a(S'I?C??A?_AeC?E?_PEO'
(ttp5602
a(S'I?O?_@?GA?I?Cg?@DO'
(ttp5603
a(S'I??@?A?WC?Gg??O@U?'
(ttp5604
a(S'I?C??@?G_@?_GK?CO_'
(ttp5605
a(S'I?C??AA?@G?@H_?@C_'
(ttp5606
a(S'I??@?GAIACA?CC?@KO'
(ttp5607
a(S'I?OC?GGH??EC?GO@`_'
(ttp5608
a(S'I??@?AAA?PCO??_HH?'
(ttp5609
a(S'I????A?`?Wc?W?P@H_'
(ttp5610
a(S'I?G@?@?CA?K?COA_@G'
(ttp5611
a(S'I????@?_`CA?W?X@B_'
(ttp5612
a(S'I?G??@?o_cG?C?OCF?'
(ttp5613
a(S'I????C?OOC@GCG_W_G'
(ttp5614
a(S'I?C?OG?H@A??OC_HE?'
(ttp5615
a(S'I???_CAA?cCCC?OGH?'
(ttp5616
a(S'I?C?_@?GA_@@Ow?C?_'
(ttp5617
a(S'I?O?OO?`_?@?S?gWEG'
(ttp5618
a(S'I?O??@?_Ab??C?c@BO'
(ttp5619
a(S'I???_???PG@I?C_HOO'
(ttp5620
a(S'I?G?OG?o_?`@??SCCG'
(ttp5621
a(S'I@CG_A?C???GCO_G?O'
(ttp5622
a(S'I???OC?O_CAAG?W@D_'
(ttp5623
a(S'I?G@???C__`D?C?G?o'
(ttp5624
a(S'ICG`?O?_?S@_CK?g?W'
(ttp5625
a(S'I?C?c?_?`@G?C?_g@O'
(ttp5626
a(S'I?G@C?_?_P@?CI?W?W'
(ttp5627
a(S'I?_?_A@?D?@?C_OKEG'
(ttp5628
a(S'I???OC?`?iG?CC_@EO'
(ttp5629
a(S'I@?GO@?C??ACG_?C?_'
(ttp5630
a(S'I?C?OG?Oc?KAG?SOCG'
(ttp5631
a(S'I?G?O@?__CC?W?P_@_'
(ttp5632
a(S'I?C?OO?_`?_?SCcgCG'
(ttp5633
a(S'I?G??G?OO?g?CC_@WO'
(ttp5634
a(S'I???OA?P?@?_CE_@IO'
(ttp5635
a(S'I?G?OG??C?KCCGSCHG'
(ttp5636
a(S'I?G??C?_OA@?WK?@O_'
(ttp5637
a(S'I?C?OO@OA?A?LAB?AO'
(ttp5638
a(S'I?C?_AO?O?`_O_OS?g'
(ttp5639
a(S'I???O??G?_GIBO?@@O'
(ttp5640
a(S'I?_?OAO?PAG?G?OSa?'
(ttp5641
a(S'I?G??C?__@@Q?C_@_O'
(ttp5642
a(S'I???OG?PAGE?G?Q@F?'
(ttp5643
a(S'I?C??A?CAEC?S?`WAG'
(ttp5644
a(S'I?O?OO@?a?@?S?kGEG'
(ttp5645
a(S'I?C@?@@@?G?CG__`?o'
(ttp5646
a(S'I???_C?__@@o??OSAG'
(ttp5647
a(S'I??@?G@@?i??CGOKCG'
(ttp5648
a(S'I?C??@?G?a?Q?E?CC?'
(ttp5649
a(S'I?G??@?O_?cS??_H`?'
(ttp5650
a(S'I?_C@@???_C?CA_@AO'
(ttp5651
a(S'I?G?OC?q??g?C?SOKG'
(ttp5652
a(S'I????A?CAOEWAO?_@?'
(ttp5653
a(S'I?GA?c?C?b??P?OO@_'
(ttp5654
a(S'I????A?P?O_cGE?@GO'
(ttp5655
a(S'I????A@?AG@OGW?@GO'
(ttp5656
a(S'I???_G?Cc?KAD?XC@G'
(ttp5657
a(S'I???OC?I?_cW??O@D_'
(ttp5658
a(S'I?OA?G?W_?a@??O@s?'
(ttp5659
a(S'I?C?OO?_P?DAGACOGG'
(ttp5660
a(S'I?CA?C?_OWC?G?U_@G'
(ttp5661
a(S'I?C?_??O@?GI??_PS?'
(ttp5662
a(S'I?O?OO?G__`CDA?W?W'
(ttp5663
a(S'I?C?OG@?P?a?ScCG?G'
(ttp5664
a(S'I???OAAA?cCCO?O@H_'
(ttp5665
a(S'I????@?CA_EWAO?@B?'
(ttp5666
a(S'I?C?O??_?OCOOo_w?G'
(ttp5667
a(S'I??@?G?GBJ??C?OOQG'
(ttp5668
a(S'I????C?P?QAaG?O@D_'
(ttp5669
a(S'I?G????W@?GI??S@d?'
(ttp5670
a(S'I?C?_C?_?_@ACCaGCO'
(ttp5671
a(S'I?C??O?`P?DA??gWGG'
(ttp5672
a(S'I??A?C?_OiA?CC?@QO'
(ttp5673
a(S'I@??OAOa?_c?CA_PKO'
(ttp5674
a(S'I?C?_G?_OcC?E?_PIO'
(ttp5675
a(S'I?O?O??G?R?@CA?g?W'
(ttp5676
a(S'I?C?_C?`AGC?G?Q_D?'
(ttp5677
a(S'I?_A_C??@A@?CO_oo?'
(ttp5678
a(S'I?G??I?OO?g?CCC@gO'
(ttp5679
a(S'I?C??A?O?O@[?G_W?O'
(ttp5680
a(S'I?O??@@?a?I?C?d@BO'
(ttp5681
a(S'I?C?_G?h@A@@A?_`CO'
(ttp5682
a(S'I???_G?oDK??C?_`K?'
(ttp5683
a(S'I?G?OC?OOC?G?A_@b?'
(ttp5684
a(S'I?G@?@@`C?C?CGQGCG'
(ttp5685
a(S'I@?GOO?G@@?GDA?G?W'
(ttp5686
a(S'I?GA?D?OOG_?CCAGOG'
(ttp5687
a(S'I?G??A?C??`K?E?COO'
(ttp5688
a(S'I?C?OC?_O?a@O?SGGG'
(ttp5689
a(S'I?C?_QAC@?GYAS?G?O'
(ttp5690
a(S'I?C?`C_@??g?O?oOG_'
(ttp5691
a(S'I?O?_D@HO?@h?A?_A_'
(ttp5692
a(S'I???OC?GQM??W?O`@_'
(ttp5693
a(S'I????@?C@DAi?A_@@O'
(ttp5694
a(S'I?GC?G@QA?@?G?Oc[?'
(ttp5695
a(S'I?G?OA?_BCA?C_OCF?'
(ttp5696
a(S'I?G_OG@G?OCQAW?C@_'
(ttp5697
a(S'I?O????C?QA@CIDG?W'
(ttp5698
a(S'I@?G_@?OA@?OO?QG@G'
(ttp5699
a(S'I?C??@?O@OGS??ao?G'
(ttp5700
a(S'I??A?C?H?X?AGCOCG_'
(ttp5701
a(S'I?G?_G?`?AC?C?OCF?'
(ttp5702
a(S'I?C?_@?P?A?AO?_WC?'
(ttp5703
a(S'I?G?OA?C@?@K?E?_?O'
(ttp5704
a(S'I???OA???_Go?c@@AO'
(ttp5705
a(S'I?O@???GABG?C?SOAG'
(ttp5706
a(S'I?C?_@?GA?A@Cq?CAO'
(ttp5707
a(S'I?G??@?G?_cWO?O@D_'
(ttp5708
a(S'I?G??A?_BC@?C_OSEG'
(ttp5709
a(S'I????A?P?QCa??OWCG'
(ttp5710
a(S'I?C?OA?_O?a@P?_HGO'
(ttp5711
a(S'I?C@?A?_A??@GOOcW?'
(ttp5712
a(S'I?OC?Q_?Q?@?GG?DW_'
(ttp5713
a(S'I?C?_??C?_GIOS_HOO'
(ttp5714
a(S'I?C?OC?G_CCAGA?@D?'
(ttp5715
a(S'I?OC?GGEC?CCGG_@O_'
(ttp5716
a(S'I?G@?D?K?U_e?C?G@_'
(ttp5717
a(S'I?G?OG?OS?K?CGU?@G'
(ttp5718
a(S'I?C?OG?Gc?KAH?_PCO'
(ttp5719
a(S'I?C?c?Ga@?C?GAPOB?'
(ttp5720
a(S'I???_O?_D?@?H?XCI_'
(ttp5721
a(S'I?G??G?O??GACCd@gO'
(ttp5722
a(S'I???O??G@?GK?CSCaG'
(ttp5723
a(S'I?G?_G?OBC??C?P?J?'
(ttp5724
a(S'I????@?C?_AYAS?@?o'
(ttp5725
a(S'I????@?CA?CWIO_p?o'
(ttp5726
a(S'I?GA?@?O??@CCME??W'
(ttp5727
a(S'I?G??A?C?QCQO?P?@_'
(ttp5728
a(S'I?G?OC?_?O@AOCb??_'
(ttp5729
a(S'I?O??G@OE?@?H?Q_cG'
(ttp5730
a(S'I?G@?G?_?O@?Cg@O?W'
(ttp5731
a(S'I?G?S?GQA?C?GAOoD?'
(ttp5732
a(S'I@??OA?O?r?QOC?G?_'
(ttp5733
a(S'I?C?OO@OA?A?D?bGAO'
(ttp5734
a(S'I?KA?O@OB?A?E?B?Q?'
(ttp5735
a(S'I?O??A?O??`@GA@@W_'
(ttp5736
a(S'I?G?OC?_?_@@OGP?G_'
(ttp5737
a(S'I?CA?C?GO?g?G?OSW?'
(ttp5738
a(S'I?G@?C?G???K?GOPo_'
(ttp5739
a(S'I?C?OG?O??GAGCUCCG'
(ttp5740
a(S'I?C?_A?C?_@K?M?C?O'
(ttp5741
a(S'I?CA?@?DC?IAOSAC?G'
(ttp5742
a(S'I?C?O@?_BA??H?`o?O'
(ttp5743
a(S'I?C@?A?GA?@@GW?DG_'
(ttp5744
a(S'I?C?_C?O?_@BO?qGC_'
(ttp5745
as.