(dp1
(S'F'
I4
tp2
(lp3
(S'CCo?'
(((I1
I3
t(I2
I-1
tp4
tttp5
a(S'CC`?'
(((I2
I3
tg4
tttp6
a(S'CC`?'
(((I2
I3
t(I1
I-2
tp7
tttp8
a(S'CWO?'
(((I0
I1
t(I1
I-2
ttttp9
a(S'CWO?'
(((I0
I1
tg4
tttp10
a(S'CCo?'
(((I1
I3
t(I1
I-2
ttttp11
a(S'CC`O'
(((I2
I3
t(I2
I-1
tt((I3
I1
t(I1
I-2
ttttp12
a(S'CC_O'
(((I3
I1
tg4
tttp13
a(S'CE_O'
(((I1
I0
t(I2
I-1
tt((I3
I1
t(I1
I-2
ttttp14
a(S'CC`O'
(((I2
I3
t(I1
I-2
tt((I3
I1
t(I2
I-1
ttttp15
a(S'CC_O'
(((I3
I1
tg7
tttp16
a(S'CWO_'
(((I0
I1
t(I1
I-2
tt((I3
I0
t(I2
I-1
ttttp17
a(S'CE`O'
(((I1
I0
t(I1
I-2
tp18
t((I2
I3
tg18
t((I3
I1
t(I2
I-1
ttttp19
a(S'CE`O'
(((I1
I0
t(I2
I-1
tp20
t((I2
I3
tg20
t((I3
I1
t(I1
I-2
ttttp21
a(S'CCgO'
(((I2
I0
t(I2
I-1
tt((I3
I1
tg18
tttp22
as(S'G'
I2
(I1
I1
tp23
tp24
(lp25
(S'CWP_'
(((I0
I1
t(I3
I-1
tp26
t((I1
I3
t(I1
I-3
tp27
t((I3
I0
t(I2
I-2
tp28
tttp29
a(S'COp_'
(((I0
I1
t(I1
I-3
tt((I3
I0
t(I3
I-1
ttttp30
as(S'G'
I2
(I3
I3
tp31
tp32
(lp33
(S'CWP_'
(((I0
I1
t(I1
I-3
tp34
t((I1
I3
t(I3
I-1
tp35
t((I3
I0
t(I2
I-2
tp36
tttp37
a(S'CM@O'
(((I1
I0
t(I3
I-1
tt((I3
I1
t(I1
I-3
ttttp38
as(S'G'
I2
(I1
I3
tp39
tp40
(lp41
(S'CC`O'
(((I1
I2
t(I2
I-2
tp42
t((I2
I3
t(I1
I-3
tp43
t((I3
I1
t(I3
I-1
tp44
tttp45
a(S'CE`O'
(((I1
I0
t(I3
I-1
tp46
t((I2
I3
tg46
t((I3
I1
t(I1
I-3
ttttp47
a(S'COh?'
(((I0
I1
tg42
t((I1
I2
tg43
t((I2
I0
tg44
tttp48
a(S'CE`O'
(((I1
I0
t(I1
I-3
tp49
t((I2
I3
tg49
t((I3
I1
t(I3
I-1
ttttp50
a(S'CCgO'
(((I2
I0
tg46
t((I3
I1
t(I1
I-3
ttttp51
a(S'COw?'
(((I0
I1
t(I3
I-1
tp52
t((I1
I2
t(I1
I-3
tp53
t((I2
I0
t(I2
I-2
tp54
tttp55
a(S'CCSG'
(((I1
I3
tg52
t((I2
I1
tg54
t((I3
I2
tg53
tttp56
as.