(dp1
(S'F'
I4
I1
tp2
(lp3
(S'DAGW??'
(((I2
I3
t(I1
I-2
tp4
tttp5
a(S'DASO??'
(((I1
I2
tg4
tttp6
a(S'DAWG??'
(((I1
I2
t(I2
I-1
tp7
tttp8
a(S'DGCO@?'
(((I2
I3
t(I2
I-1
tp9
tttp10
a(S'DAW?O?'
(((I3
I4
tg4
tttp11
a(S'DCK?A?'
(((I1
I3
tg4
tttp12
a(S'DCS?G?'
(((I4
I0
tg4
tttp13
a(S'DASQ??'
(((I1
I2
t(I1
I-2
tp14
t((I3
I1
t(I2
I-1
tp15
tttp16
a(S'DAW?@?'
(((I1
I3
t(I2
I-1
ttttp17
a(S'DQO?@?'
(((I0
I1
tg4
tttp18
a(S'DO?HD?'
(((I4
I1
tg4
tttp19
a(S'DSC?A?'
(((I0
I1
t(I2
I-1
tp20
tttp21
a(S'DCS?O?'
(((I3
I4
t(I2
I-1
ttttp22
a(S'DOCH@?'
(((I1
I4
tg9
tttp23
a(S'DAOQ@?'
(((I2
I3
t(I2
I-1
tp24
t((I3
I1
t(I1
I-2
tp25
tttp26
a(S'DES???'
(((I0
I4
t(I2
I-1
ttttp27
a(S'DCCAB?'
(((I3
I1
t(I2
I-1
tp28
t((I4
I3
t(I1
I-2
tp29
tttp30
a(S'DCCOA?'
(((I2
I3
tg4
tttp31
a(S'DASA@?'
(((I1
I4
t(I2
I-1
tp32
t((I3
I1
t(I1
I-2
tp33
tttp34
a(S'DAGH??'
(((I3
I2
tg7
tttp35
a(S'DSS?W?'
(((I0
I1
t(I2
I-1
tp36
t((I3
I4
tg36
t((I4
I0
t(I1
I-2
ttttp37
a(S'DAGH@?'
(((I3
I2
tg28
t((I4
I3
tg29
tttp38
a(S'DBO?D?'
(((I1
I0
tg28
t((I4
I1
tg29
tttp39
a(S'DCS?W?'
(((I3
I4
t(I2
I-1
tt((I4
I0
t(I1
I-2
ttttp40
a(S'DAOA@?'
(((I3
I1
tg4
tttp41
a(S'DASQ@?'
(((I1
I4
t(I2
I-1
tp42
t((I2
I3
tg42
t((I3
I1
t(I1
I-2
ttttp43
a(S'DQGCA?'
(((I0
I1
tg14
t((I3
I0
tg15
tttp44
a(S'DO?HH?'
(((I4
I0
tg4
tttp45
a(S'DQ?H@?'
(((I0
I4
t(I2
I-1
ttttp46
a(S'DCCOQ?'
(((I2
I3
t(I1
I-2
tt((I3
I4
t(I2
I-1
ttttp47
a(S'DOCHH?'
(((I1
I4
tg24
t((I4
I0
tg25
tttp48
a(S'DAHH@?'
(((I2
I1
t(I1
I-2
tp49
t((I3
I2
t(I2
I-1
tt((I4
I3
tg49
tttp50
a(S'DSS?G?'
(((I0
I1
tg32
t((I4
I0
tg33
tttp51
a(S'DCCAA?'
(((I3
I1
tg20
tttp52
a(S'DQGCB?'
(((I0
I1
t(I1
I-2
tp53
t((I3
I0
t(I2
I-1
tt((I4
I3
tg53
tttp54
a(S'DCSQG?'
(((I2
I3
tg49
t((I3
I1
t(I2
I-1
tt((I4
I0
tg49
tttp55
a(S'DACQA?'
(((I3
I1
t(I2
I-1
tp56
t((I4
I2
tg49
tttp57
a(S'DADOA?'
(((I2
I1
t(I2
I-1
tt((I4
I2
t(I1
I-2
ttttp58
a(S'DAW?S?'
(((I3
I4
tg33
t((I4
I1
tg32
tttp59
a(S'DOGOY?'
(((I1
I3
tg42
t((I4
I0
t(I1
I-2
ttttp60
a(S'DAOI@?'
(((I2
I4
tg42
t((I3
I1
t(I1
I-2
tp61
tttp62
a(S'DADOQ?'
(((I2
I1
t(I2
I-1
tp63
t((I3
I4
tg63
t((I4
I2
t(I1
I-2
ttttp64
a(S'DAEQA?'
(((I2
I0
t(I2
I-1
tp65
t((I3
I1
tg65
t((I4
I2
t(I1
I-2
tp66
tttp67
a(S'DCSAG?'
(((I3
I1
tg36
t((I4
I0
t(I1
I-2
ttttp68
a(S'DBGOU?'
(((I1
I0
t(I2
I-1
tp69
t((I2
I3
t(I1
I-2
tp70
t((I3
I4
tg69
t((I4
I1
tg70
tttp71
a(S'DBW?S?'
(((I1
I0
t(I1
I-2
tp72
t((I3
I4
tg72
t((I4
I1
t(I2
I-1
ttttp73
a(S'DBG?U?'
(((I1
I0
t(I2
I-1
tp74
t((I3
I4
tg74
t((I4
I1
t(I1
I-2
ttttp75
a(S'DOCJH?'
(((I1
I4
t(I2
I-1
tt((I3
I1
tg61
t((I4
I0
tg61
tttp76
a(S'DAGOU?'
(((I2
I3
tg61
t((I3
I4
t(I2
I-1
tt((I4
I1
tg61
tttp77
a(S'DAGCE?'
(((I3
I0
t(I2
I-1
tt((I4
I1
tg72
tttp78
a(S'DCEJ@?'
(((I2
I0
tg66
t((I3
I1
tg65
t((I3
I2
tg65
t((I4
I3
tg66
tttp79
a(S'DAQA@?'
(((I2
I0
tg65
t((I3
I1
t(I1
I-2
tp80
tttp81
a(S'DWKKG?'
(((I0
I1
tg56
t((I2
I4
tg56
t((I3
I0
t(I1
I-2
tp82
t((I4
I0
tg82
tttp83
a(S'DSCOY?'
(((I0
I3
tg42
t((I1
I4
tg42
t((I4
I0
t(I1
I-2
ttttp84
a(S'DQGSA?'
(((I0
I1
tg80
t((I2
I3
tg80
t((I3
I0
t(I2
I-1
ttttp85
a(S'DBOQ@?'
(((I1
I0
tg65
t((I2
I3
tg65
t((I3
I1
t(I1
I-2
ttttp86
a(S'DCSI@?'
(((I3
I1
t(I2
I-1
tt((I4
I3
t(I1
I-2
ttttp87
a(S'DFO?S?'
(((I1
I0
t(I2
I-1
tt((I4
I1
t(I1
I-2
ttttp88
a(S'DCL@A?'
(((I1
I3
t(I1
I-2
tt((I2
I1
t(I2
I-2
tt((I3
I2
t(I2
I-1
ttttp89
a(S'DQWC@?'
(((I0
I1
t(I1
I-2
tt((I1
I3
t(I2
I-1
tt((I3
I0
t(I2
I-2
ttttp90
as(S'F'
I4
I-1
tp91
(lp92
(S'DAGW??'
(((I2
I3
t(I2
I-1
tp93
tttp94
a(S'DASO??'
(((I1
I2
tg93
tttp95
a(S'DAWG??'
(((I1
I2
t(I1
I-2
tp96
tttp97
a(S'DGCO@?'
(((I2
I3
t(I1
I-2
tp98
tttp99
a(S'DAW?O?'
(((I3
I4
tg93
tttp100
a(S'DCK?A?'
(((I1
I3
tg93
tttp101
a(S'DCS?G?'
(((I4
I0
tg93
tttp102
a(S'DAHH??'
(((I2
I1
t(I2
I-1
tp103
t((I3
I2
t(I1
I-2
tp104
tttp105
a(S'DAW?@?'
(((I1
I3
t(I1
I-2
ttttp106
a(S'DQO?@?'
(((I0
I1
tg93
tttp107
a(S'DES???'
(((I0
I4
tg96
tttp108
a(S'DASA@?'
(((I1
I4
t(I1
I-2
tp109
t((I3
I1
t(I2
I-1
tp110
tttp111
a(S'DAGH??'
(((I3
I2
tg96
tttp112
a(S'DSC?A?'
(((I0
I1
tg96
tttp113
a(S'DO?HD?'
(((I4
I1
tg93
tttp114
a(S'DCS?O?'
(((I3
I4
t(I1
I-2
ttttp115
a(S'DOCH@?'
(((I1
I4
tg98
tttp116
a(S'DAOQ@?'
(((I2
I3
t(I1
I-2
tt((I3
I1
t(I2
I-1
ttttp117
a(S'DCCAB?'
(((I3
I1
t(I1
I-2
tp118
t((I4
I3
t(I2
I-1
tp119
tttp120
a(S'DCCOA?'
(((I2
I3
tg93
tttp121
a(S'DO?HH?'
(((I4
I0
t(I2
I-1
ttttp122
a(S'DCCOQ?'
(((I2
I3
tg110
t((I3
I4
tg109
tttp123
a(S'DAHH@?'
(((I2
I1
t(I2
I-1
tp124
t((I3
I2
t(I1
I-2
tt((I4
I3
tg124
tttp125
a(S'DSS?G?'
(((I0
I1
tg109
t((I4
I0
tg110
tttp126
a(S'DDCAA?'
(((I1
I0
t(I2
I-1
tt((I3
I1
t(I1
I-2
ttttp127
a(S'DSS?W?'
(((I0
I1
t(I1
I-2
tp128
t((I3
I4
tg128
t((I4
I0
t(I2
I-1
ttttp129
a(S'DAGH@?'
(((I3
I2
tg118
t((I4
I3
tg119
tttp130
a(S'DSC?I?'
(((I0
I1
tg118
t((I4
I0
tg119
tttp131
a(S'DCS?W?'
(((I3
I4
tg104
t((I4
I0
tg103
tttp132
a(S'DASQ@?'
(((I1
I4
t(I1
I-2
tp133
t((I2
I3
tg133
t((I3
I1
t(I2
I-1
ttttp134
a(S'DAOA@?'
(((I3
I1
tg93
tttp135
a(S'DQ?H@?'
(((I0
I4
tg96
tttp136
a(S'DCCAA?'
(((I3
I1
tg96
tttp137
a(S'DOCHH?'
(((I1
I4
t(I1
I-2
tt((I4
I0
t(I2
I-1
ttttp138
a(S'DDCAB?'
(((I1
I0
t(I2
I-1
tp139
t((I3
I1
t(I1
I-2
tt((I4
I3
tg139
tttp140
a(S'DBW?S?'
(((I1
I0
t(I2
I-1
tp141
t((I3
I4
tg141
t((I4
I1
t(I1
I-2
ttttp142
a(S'DAWGC?'
(((I1
I2
tg118
t((I4
I1
tg119
tttp143
a(S'DBGHC?'
(((I1
I0
t(I1
I-2
tp144
t((I3
I2
tg144
t((I4
I1
t(I2
I-1
ttttp145
a(S'DAWCC?'
(((I3
I0
t(I2
I-1
tp146
t((I4
I1
tg128
tttp147
a(S'DSCOY?'
(((I0
I1
t(I1
I-2
tp148
t((I2
I3
t(I2
I-1
tp149
t((I3
I4
tg148
t((I4
I0
tg149
tttp150
a(S'DADOQ?'
(((I2
I1
t(I1
I-2
tp151
t((I3
I4
tg151
t((I4
I2
t(I2
I-1
ttttp152
a(S'DAW?S?'
(((I3
I4
tg110
t((I4
I1
tg109
tttp153
a(S'DOCL@?'
(((I1
I4
tg133
t((I3
I0
t(I2
I-1
ttttp154
a(S'DAH?Q?'
(((I2
I1
t(I2
I-1
tp155
t((I3
I4
tg133
tttp156
a(S'DAWKC?'
(((I2
I4
tg124
t((I3
I0
tg124
t((I4
I1
t(I1
I-2
ttttp157
a(S'DAGHC?'
(((I3
I2
t(I1
I-2
tp158
t((I4
I1
tg124
tttp159
a(S'DSC?Y?'
(((I0
I1
t(I1
I-2
tp160
t((I3
I4
tg160
t((I4
I0
t(I2
I-1
ttttp161
a(S'DWKKG?'
(((I0
I1
tg158
t((I2
I4
tg158
t((I3
I0
t(I2
I-1
tp162
t((I4
I0
tg162
tttp163
a(S'DAGOU?'
(((I2
I3
tg124
t((I3
I4
t(I1
I-2
tt((I4
I1
tg124
tttp164
a(S'DCCAI?'
(((I3
I1
tg158
t((I4
I0
tg124
tttp165
a(S'DCEAA?'
(((I2
I0
tg124
t((I3
I1
t(I1
I-2
tp166
tttp167
a(S'DOCJH?'
(((I1
I4
t(I1
I-2
tt((I3
I1
tg155
t((I4
I0
tg155
tttp168
a(S'DCEJ@?'
(((I2
I0
tg146
t((I3
I1
t(I1
I-2
tp169
t((I3
I2
tg169
t((I4
I3
tg146
tttp170
a(S'DQGL@?'
(((I0
I4
t(I1
I-2
tp171
t((I1
I3
tg171
t((I3
I0
t(I2
I-1
ttttp172
a(S'DDCQA?'
(((I1
I0
tg124
t((I2
I3
tg124
t((I3
I1
t(I1
I-2
ttttp173
a(S'DWCS@?'
(((I0
I1
tg166
t((I2
I3
tg166
t((I3
I0
t(I2
I-1
ttttp174
a(S'DCSI@?'
(((I3
I1
t(I1
I-2
tt((I4
I3
t(I2
I-1
ttttp175
a(S'DWK?W?'
(((I0
I1
t(I1
I-2
tt((I4
I0
t(I2
I-1
ttttp176
a(S'DQWC@?'
(((I0
I1
t(I2
I-1
tt((I1
I3
t(I1
I-2
tt((I3
I0
t(I2
I-2
ttttp177
a(S'DGSQ@?'
(((I1
I2
t(I2
I-1
tt((I2
I3
t(I1
I-2
tt((I3
I1
t(I2
I-2
ttttp178
as.