(dp1
(S'G'
I2
I-1
tp2
(lp3
(S'BH?'
(((I1
I2
t(I1
I-3
tp4
tttp5
a(S'BGO'
(((I2
I1
t(I3
I-1
ttttp6
a(S'BW?'
(((I0
I1
t(I3
I-1
ttttp7
a(S'BP?'
(((I0
I1
tg4
tttp8
a(S'BP_'
(((I0
I1
t(I1
I-3
tt((I2
I0
t(I3
I-1
ttttp9
a(S'BP_'
(((I0
I1
t(I3
I-1
tt((I1
I2
t(I1
I-3
tt((I2
I0
t(I2
I-2
ttttp10
as(S'G'
I2
I1
tp11
(lp12
(S'BH?'
(((I1
I2
t(I3
I-1
tp13
tttp14
a(S'BGO'
(((I2
I1
t(I1
I-3
ttttp15
a(S'BW?'
(((I0
I1
t(I1
I-3
ttttp16
a(S'BP?'
(((I0
I1
tg13
tttp17
a(S'BKO'
(((I1
I0
t(I3
I-1
tt((I2
I1
t(I1
I-3
ttttp18
a(S'BP_'
(((I0
I1
t(I2
I-2
tt((I1
I2
t(I1
I-3
tt((I2
I0
t(I3
I-1
ttttp19
as.