(dp1
(S'E'
I7
tp2
(lp3
(S'F?a_w?????'
(ttp4
a(S'F?`@O?E???'
(ttp5
a(S'F@@@W?A???'
(ttp6
a(S'F?_`o?A???'
(ttp7
a(S'F?`_??OP??'
(ttp8
a(S'F?_`_?A@??'
(ttp9
a(S'FAa_???P??'
(ttp10
a(S'FAao???O??'
(ttp11
a(S'FAA_??AP??'
(ttp12
a(S'F?_`OS????'
(ttp13
a(S'F@A?_CE???'
(ttp14
a(S'F?a?_GA@??'
(ttp15
a(S'F?co?GOC??'
(ttp16
a(S'FAAo??AO??'
(ttp17
a(S'F?a_??AS??'
(ttp18
a(S'F?__?Oe?C?'
(ttp19
a(S'F?_`?SC???'
(ttp20
a(S'F?ao??_C??'
(ttp21
a(S'F?__WOA???'
(ttp22
a(S'F?b_??AO??'
(ttp23
a(S'FG_??OCh??'
(ttp24
a(S'F@_???O_I?'
(ttp25
a(S'F@AO??_D??'
(ttp26
a(S'F?`PO??@??'
(ttp27
a(S'FA_o???OC?'
(ttp28
a(S'F?_`OO?@??'
(ttp29
a(S'F?_?Q?qC@?'
(ttp30
a(S'F?_?P@AK??'
(ttp31
a(S'F?d??CAG@?'
(ttp32
a(S'F?a??CaC@?'
(ttp33
a(S'F@E??C?@A?'
(ttp34
a(S'F@AOo??@??'
(ttp35
a(S'F@CO?KOCA?'
(ttp36
a(S'FC_?O@aC@?'
(ttp37
a(S'F@AO??aC??'
(ttp38
a(S'F?aOg?C???'
(ttp39
a(S'F?_?I?QS@?'
(ttp40
a(S'F?__`?S@??'
(ttp41
a(S'F?`?OW?@??'
(ttp42
a(S'F?`O??OO@?'
(ttp43
a(S'F?_?IC_GB?'
(ttp44
a(S'F?_`?CC@A?'
(ttp45
a(S'F?c?GGOC@?'
(ttp46
a(S'F?aO??aC@?'
(ttp47
a(S'FC???DACH?'
(ttp48
a(S'F???IE_K@?'
(ttp49
a(S'FC??GHc@A?'
(ttp50
a(S'F?c_?OACD?'
(ttp51
a(S'FG_??PAG@?'
(ttp52
a(S'F?_?OLoC??'
(ttp53
a(S'F@_?G?__E?'
(ttp54
a(S'F?_o??OS??'
(ttp55
a(S'F???IAA[@?'
(ttp56
a(S'F???P@?Ha?'
(ttp57
a(S'F??OK?oc@?'
(ttp58
a(S'F@?Oa?ACL?'
(ttp59
a(S'F@?O`KO?A?'
(ttp60
a(S'F?_?a?QO@?'
(ttp61
a(S'FC_OO@_C@?'
(ttp62
a(S'F?_O@HOC@?'
(ttp63
a(S'FG?_GKOCA?'
(ttp64
a(S'F@?PGW_?A?'
(ttp65
a(S'FG_?AGQC@?'
(ttp66
a(S'F?c_?G?DC?'
(ttp67
a(S'F?_`O?AC??'
(ttp68
a(S'F?`??CCW??'
(ttp69
a(S'FC_???COQ?'
(ttp70
a(S'F@?O_C?GB?'
(ttp71
a(S'F?__?C_K??'
(ttp72
a(S'F?__?O_H??'
(ttp73
a(S'F@?og???C?'
(ttp74
a(S'F?b???CP??'
(ttp75
a(S'F??C@EAK@?'
(ttp76
a(S'FG_??GODO?'
(ttp77
a(S'FA?o??AOC?'
(ttp78
a(S'F?_?GOCw??'
(ttp79
a(S'F?_?@?ChA?'
(ttp80
a(S'F?__WS????'
(ttp81
a(S'FD_??@?OA?'
(ttp82
a(S'F@@@O?A@??'
(ttp83
a(S'F?a?OK_C??'
(ttp84
a(S'F@A??C_D??'
(ttp85
a(S'F?__WOA?C?'
(ttp86
a(S'F@A?_CC@??'
(ttp87
a(S'F@?p?C??A?'
(ttp88
a(S'F?`@GGA???'
(ttp89
a(S'FD??G?_`A?'
(ttp90
a(S'F@A??CaC??'
(ttp91
a(S'F?_`_?A?@?'
(ttp92
a(S'F?`@G?C@??'
(ttp93
a(S'F@e??C??A?'
(ttp94
a(S'F?_??God??'
(ttp95
a(S'FE?O??A_H?'
(ttp96
a(S'FA?_G?AOC?'
(ttp97
a(S'FG??GOCh??'
(ttp98
a(S'FD_?G?__A?'
(ttp99
a(S'F?`?GCOO@?'
(ttp100
a(S'F?c?GGOD??'
(ttp101
a(S'F?a_G?_?B?'
(ttp102
a(S'F?b???AO@?'
(ttp103
a(S'F?_??Och??'
(ttp104
a(S'FC_?G@AS@?'
(ttp105
a(S'F?`@O?A?@?'
(ttp106
a(S'F?`??GOP??'
(ttp107
a(S'F@A?GCc@A?'
(ttp108
a(S'F?c_?CS@A?'
(ttp109
a(S'F?_?QGQCG?'
(ttp110
a(S'FD??G?c@Q?'
(ttp111
a(S'FC?_GOAS@?'
(ttp112
a(S'F?a_G?_C@?'
(ttp113
a(S'FA?_GS?W@?'
(ttp114
a(S'F?__PDOC??'
(ttp115
a(S'F@CO?OACD?'
(ttp116
a(S'F?__WO_?C?'
(ttp117
a(S'F?_?QGqC??'
(ttp118
a(S'FC??GDAS@?'
(ttp119
a(S'F?cO?GOC@?'
(ttp120
a(S'F@?OG?__E?'
(ttp121
a(S'F@A??CC@I?'
(ttp122
a(S'FG??GGODO?'
(ttp123
a(S'F@@OG??OC?'
(ttp124
a(S'F??OQI?DK?'
(ttp125
a(S'F?__@OCHQ?'
(ttp126
a(S'F?__P@?DC?'
(ttp127
a(S'F??@?H?Dg?'
(ttp128
a(S'F???@?Acd?'
(ttp129
a(S'F@CO?CS@A?'
(ttp130
a(S'F?_?QGoD??'
(ttp131
a(S'F@?o?CO?I?'
(ttp132
a(S'F?__GKo?A?'
(ttp133
a(S'F?__WO??C?'
(ttp134
a(S'F?_?YGoC??'
(ttp135
a(S'F?`O?C_G@?'
(ttp136
a(S'FC___?CPQ?'
(ttp137
a(S'F??OCD?GJ?'
(ttp138
a(S'FD????_@Q?'
(ttp139
a(S'F?__?Oa?D?'
(ttp140
a(S'F?_`G?C@A?'
(ttp141
a(S'FC_??@ACH?'
(ttp142
a(S'F?@?sGA@[?'
(ttp143
a(S'F?__S@ACK?'
(ttp144
a(S'F?AC?C`?B?'
(ttp145
a(S'F@?OH@C@E?'
(ttp146
a(S'F?_OQ?_CD?'
(ttp147
a(S'F?a??C_C@?'
(ttp148
a(S'F@??IC_GA?'
(ttp149
a(S'F@?PGG_CA?'
(ttp150
a(S'FC?OOH_@A?'
(ttp151
a(S'F@@_`?Q@O?'
(ttp152
a(S'FG??QCS@A?'
(ttp153
a(S'F?__O?_LO?'
(ttp154
a(S'F?__GG_?E?'
(ttp155
a(S'F???H?D?U?'
(ttp156
a(S'F?_`G?AC@?'
(ttp157
a(S'F@?OGKoCA?'
(ttp158
a(S'F?__?GoD??'
(ttp159
a(S'F?__?G_DC?'
(ttp160
a(S'FC__G@AS@?'
(ttp161
a(S'F?a?GG_?B?'
(ttp162
a(S'F?_OQG_DC?'
(ttp163
a(S'F??OC?QcH?'
(ttp164
a(S'F?aO??_C@?'
(ttp165
a(S'F@?@I?c@A?'
(ttp166
a(S'F?_??P?OD?'
(ttp167
a(S'F??gI?cHA?'
(ttp168
a(S'F??OP@@HA?'
(ttp169
a(S'F?a?GGc@A?'
(ttp170
a(S'F@??I?_HA?'
(ttp171
a(S'F?_`?CC?A?'
(ttp172
a(S'F???I?RS@?'
(ttp173
a(S'FA_?G??oD?'
(ttp174
a(S'F@???P?@K?'
(ttp175
a(S'F??OQAC@M?'
(ttp176
a(S'F??OHA?k@?'
(ttp177
a(S'F??WIGc@E?'
(ttp178
a(S'F?_OOHOCG?'
(ttp179
a(S'F??@CDAS@?'
(ttp180
a(S'FC@?GGAS@?'
(ttp181
a(S'F?_`?CAC@?'
(ttp182
a(S'F?_O`?Q_@?'
(ttp183
a(S'F?cO?GOD??'
(ttp184
a(S'F?_?H@AK@?'
(ttp185
a(S'F?c_?GO@A?'
(ttp186
a(S'F?_?OT_G@?'
(ttp187
a(S'F???SCS`I?'
(ttp188
a(S'F??OHAOc@?'
(ttp189
a(S'FC__O?aCO?'
(ttp190
a(S'F@?O_KOOA?'
(ttp191
a(S'F?__X@OC??'
(ttp192
a(S'F?_`?OC@??'
(ttp193
a(S'F?_?P@QC@?'
(ttp194
a(S'F?_@?Gac??'
(ttp195
a(S'F?_?`?Q_@?'
(ttp196
a(S'F@??aWA@K?'
(ttp197
a(S'F?a?OG?DG?'
(ttp198
a(S'FC?OGC_c@?'
(ttp199
a(S'F?a?GG_C@?'
(ttp200
a(S'F@?O?GqC??'
(ttp201
a(S'F?__?Cs@A?'
(ttp202
a(S'F???@?C`e?'
(ttp203
a(S'FG??GPAG@?'
(ttp204
a(S'F??OPBCHA?'
(ttp205
a(S'F?_?`?R?P?'
(ttp206
a(S'F@???D?GI?'
(ttp207
a(S'F?_?@CO_B?'
(ttp208
a(S'F?`??COO@?'
(ttp209
a(S'F?`??CAW@?'
(ttp210
a(S'F?__GG_@E?'
(ttp211
a(S'F?_?QAS@I?'
(ttp212
a(S'FG_O?P?G@?'
(ttp213
a(S'F?aO??AS@?'
(ttp214
a(S'F@?O_C?K@?'
(ttp215
a(S'F@AO??C@I?'
(ttp216
a(S'FA?_GCOWB?'
(ttp217
a(S'FA??G?AoD?'
(ttp218
a(S'F@??GG_@U?'
(ttp219
a(S'FC_?O@C@I?'
(ttp220
a(S'F?_??Cak@?'
(ttp221
a(S'F?_??C_k@?'
(ttp222
a(S'F?_OOD_K@?'
(ttp223
a(S'F??OQG_Dc?'
(ttp224
a(S'F@CO_DOGB?'
(ttp225
a(S'F@?OqOA@K?'
(ttp226
a(S'F?__GC_GB?'
(ttp227
a(S'F??OG?`_F?'
(ttp228
a(S'F?_??C_gB?'
(ttp229
a(S'F@??GKo?Q?'
(ttp230
a(S'FC_OO@C@I?'
(ttp231
a(S'F?_?IGQS@?'
(ttp232
a(S'F?__H?S?A?'
(ttp233
a(S'F??OKD?WB?'
(ttp234
a(S'F?__K@ASD?'
(ttp235
a(S'F?_?I?_GB?'
(ttp236
a(S'F?__H?S@A?'
(ttp237
a(S'FC??GGc@Q?'
(ttp238
a(S'F?a?OG_@A?'
(ttp239
a(S'FA?_?WAPS?'
(ttp240
a(S'FC@?OCC`I?'
(ttp241
a(S'F??PCC__B?'
(ttp242
a(S'F@?O?OaCD?'
(ttp243
a(S'FC?_OCaCO?'
(ttp244
a(S'FC??ODC@I?'
(ttp245
a(S'F?_?QIO@I?'
(ttp246
a(S'F?_?GHoC@?'
(ttp247
a(S'F@???Cs@Q?'
(ttp248
a(S'F?__`?S@Q?'
(ttp249
a(S'F@?C`CS@a?'
(ttp250
a(S'F??OGQ_g@?'
(ttp251
a(S'F@?@ACc@A?'
(ttp252
a(S'F??O@JC@E?'
(ttp253
a(S'F???IE?WB?'
(ttp254
a(S'F?__?CaK@?'
(ttp255
a(S'F?`@GG?S@?'
(ttp256
a(S'F?_?Q?S@I?'
(ttp257
a(S'F?_`OPaCC?'
(ttp258
a(S'F??Oc?Qo@?'
(ttp259
a(S'F??S@IC@E?'
(ttp260
a(S'F?_PA?`?B?'
(ttp261
a(S'F??OHA?gB?'
(ttp262
a(S'F?aC?G_D??'
(ttp263
a(S'F?`?S?C`M?'
(ttp264
a(S'F@?OaWA?K?'
(ttp265
a(S'F@??HOACT?'
(ttp266
a(S'F???H@?K`?'
(ttp267
a(S'F?_?GCOoB?'
(ttp268
a(S'F?__?G_@E?'
(ttp269
a(S'F@?O_CAK@?'
(ttp270
a(S'F??OAAAKH?'
(ttp271
a(S'FC_?G?_c@?'
(ttp272
a(S'F??OOJO@I?'
(ttp273
a(S'F??PCHC@I?'
(ttp274
a(S'F?___OCHW?'
(ttp275
a(S'F?_?QCaK@?'
(ttp276
a(S'F?__PA?@U?'
(ttp277
a(S'F?_?QAC@M?'
(ttp278
a(S'F?__P@QC??'
(ttp279
a(S'F?_?@CCgA?'
(ttp280
a(S'F@?O`COGB?'
(ttp281
a(S'F???QES@I?'
(ttp282
a(S'FA?_MCOWB?'
(ttp283
a(S'F??OH@@GB?'
(ttp284
a(S'F?_?`?Eg??'
(ttp285
a(S'FA?_`GA@s?'
(ttp286
a(S'F??OHB?K@?'
(ttp287
a(S'F?_?S?S`I?'
(ttp288
a(S'F@?OaOE?K?'
(ttp289
a(S'F?@GQCS@I?'
(ttp290
a(S'F?__P@ACC?'
(ttp291
a(S'F?__GOcHQ?'
(ttp292
a(S'FC?_GDAS@?'
(ttp293
a(S'F@?P?OACH?'
(ttp294
a(S'F???HAAk@?'
(ttp295
a(S'F?_?Q?aK@?'
(ttp296
a(S'F?_OHA?gB?'
(ttp297
a(S'F?_OQ?_K@?'
(ttp298
a(S'FC_OG?_c@?'
(ttp299
a(S'F??cCCS@I?'
(ttp300
a(S'FG?OGP?G@?'
(ttp301
a(S'FC__O?_@Q?'
(ttp302
a(S'F?_?QCS@I?'
(ttp303
a(S'F?_OQ?oC@?'
(ttp304
a(S'F???QCaK`?'
(ttp305
a(S'F??OHJC@E?'
(ttp306
a(S'FC?OODC@I?'
(ttp307
a(S'F@?WaOAOD?'
(ttp308
a(S'F?_O`@?G@?'
(ttp309
a(S'F??OaAAW@?'
(ttp310
a(S'F?_?GDOS@?'
(ttp311
a(S'F?__?Oc@C?'
(ttp312
a(S'F?__PB?HA?'
(ttp313
a(S'F??OPBC@E?'
(ttp314
a(S'F??OOZ?@K?'
(ttp315
a(S'F??OQGaCc?'
(ttp316
a(S'F@?OaGACK?'
(ttp317
a(S'F?C?a?AG`?'
(ttp318
a(S'F?`?S?S`I?'
(ttp319
a(S'F?__P@OD??'
(ttp320
a(S'F@??`CS@Q?'
(ttp321
a(S'F@?S@OACD?'
(ttp322
a(S'F@?Ob?S@a?'
(ttp323
a(S'F?__S?o@Q?'
(ttp324
a(S'FA??SCS`I?'
(ttp325
a(S'F?_OQAC@M?'
(ttp326
a(S'F??_GOcHq?'
(ttp327
a(S'FC??GC_c@?'
(ttp328
a(S'F?_?I?_K@?'
(ttp329
a(S'F@??_WA`k?'
(ttp330
a(S'F?_`C?c@Q?'
(ttp331
a(S'F?__I?QS@?'
(ttp332
a(S'F?`?OWA@K?'
(ttp333
a(S'F@??aCAKH?'
(ttp334
a(S'F@@C@CS@a?'
(ttp335
a(S'F??`CCc@Q?'
(ttp336
a(S'F?_OP@OC@?'
(ttp337
a(S'F?_OcHCPE?'
(ttp338
a(S'F?`@GGAS@?'
(ttp339
a(S'F@?OaOA?L?'
(ttp340
a(S'F??OGO`g@?'
(ttp341
a(S'F???IGc@e?'
(ttp342
a(S'F?_?P@C@E?'
(ttp343
a(S'F?_OQI_@E?'
(ttp344
a(S'F?_O_SCw@?'
(ttp345
a(S'F?_OO@CHI?'
(ttp346
a(S'F@?O_CCGA?'
(ttp347
a(S'F?_??PAW@?'
(ttp348
a(S'FA?_qCAGg?'
(ttp349
a(S'F??OGA_cD?'
(ttp350
a(S'F?__hHOCC?'
(ttp351
a(S'F@?O_WA_K?'
(ttp352
a(S'F?__?J?PE?'
(ttp353
a(S'F?_c@AC@E?'
(ttp354
a(S'F@?OHOAcD?'
(ttp355
a(S'F@?S@IACC?'
(ttp356
a(S'F???QCS@i?'
(ttp357
a(S'F@??bCS@a?'
(ttp358
a(S'FC?_OC_@Q?'
(ttp359
a(S'F?__lHOCC?'
(ttp360
a(S'F?_OQGaCC?'
(ttp361
a(S'F?_O?P@GH?'
(ttp362
a(S'F?_?O@CHI?'
(ttp363
a(S'F??O`AAg@?'
(ttp364
a(S'F?`@OCC@I?'
(ttp365
a(S'F@COcDOGB?'
(ttp366
a(S'F?__OO_@S?'
(ttp367
a(S'F???G@BSD?'
(ttp368
a(S'F?__`?CHQ?'
(ttp369
a(S'F?__`GO@Q?'
(ttp370
a(S'FA?_q?A@k?'
(ttp371
a(S'F??OQI_@E?'
(ttp372
a(S'F?__P?QCO?'
(ttp373
a(S'F?`?cGC`K?'
(ttp374
a(S'F@?_HOACS?'
(ttp375
a(S'F?_?ROCHA?'
(ttp376
a(S'F?_OGO_g@?'
(ttp377
a(S'F@??H?S@Q?'
(ttp378
a(S'F@@_`?A@S?'
(ttp379
a(S'F?`?OCoC@?'
(ttp380
a(S'F?_?OPC@K?'
(ttp381
a(S'F??OPFCGA?'
(ttp382
a(S'F????CdGQ?'
(ttp383
a(S'F???H?DGQ?'
(ttp384
a(S'F?__?GaCC?'
(ttp385
a(S'F?__GCcGA?'
(ttp386
a(S'F@??GOAST?'
(ttp387
a(S'F?_?GGOoA?'
(ttp388
a(S'F???GQAw@?'
(ttp389
a(S'F???GHc@e?'
(ttp390
a(S'F?__O?aKO?'
(ttp391
a(S'F?__?Go@A?'
(ttp392
a(S'F?_OOH_@E?'
(ttp393
a(S'F??OOHO@i?'
(ttp394
a(S'F?_??Coc@?'
(ttp395
a(S'F?_?IGc@E?'
(ttp396
a(S'F?`GQCS@I?'
(ttp397
a(S'F?_PC@?S@?'
(ttp398
a(S'F?_S@IC@E?'
(ttp399
a(S'F?__PB?@E?'
(ttp400
a(S'F@??_WA@[?'
(ttp401
a(S'F?_?GHc@E?'
(ttp402
a(S'F??OG?`cD?'
(ttp403
a(S'F?_?GCOs@?'
(ttp404
a(S'F?`?sGA@[?'
(ttp405
a(S'F?_cC?S@I?'
(ttp406
a(S'F?__GGc@E?'
(ttp407
a(S'F?_?H?CgA?'
(ttp408
a(S'F?__GG_CC?'
(ttp409
a(S'F@@CCCAKH?'
(ttp410
a(S'F@?_aOA@K?'
(ttp411
a(S'F?__O?_HQ?'
(ttp412
a(S'F??OO@CHi?'
(ttp413
a(S'F?__aOCHG?'
(ttp414
a(S'F?_O`GQc@?'
(ttp415
a(S'F?__?DA[@?'
(ttp416
a(S'F?`?OCS@I?'
(ttp417
a(S'F@@?ICOWB?'
(ttp418
a(S'F?__GC_K@?'
(ttp419
as(S'E'
I6
I1
tp420
(lp421
(S'F?___[????'
(ttp422
a(S'F?_`WO????'
(ttp423
a(S'F?_`_?E???'
(ttp424
a(S'F@@@?CA@??'
(ttp425
a(S'FAA?GCAO@?'
(ttp426
a(S'F@@@G?A@??'
(ttp427
a(S'F?``O??@??'
(ttp428
a(S'F?__@KOCA?'
(ttp429
a(S'F?a_??_D??'
(ttp430
a(S'F?_`?OE???'
(ttp431
a(S'F?__`?U???'
(ttp432
a(S'F?`o??OO??'
(ttp433
a(S'FC?OGC__B?'
(ttp434
a(S'FAA??CAO@?'
(ttp435
a(S'FAAOG?AO@?'
(ttp436
a(S'F@`PG?????'
(ttp437
a(S'F?_?@DAK@?'
(ttp438
a(S'F@@@G?A?@?'
(ttp439
a(S'FAaO???O@?'
(ttp440
a(S'FC_???__B?'
(ttp441
a(S'F?_?P@?L??'
(ttp442
a(S'F@@PG??@??'
(ttp443
a(S'FB_???OOO?'
(ttp444
a(S'F?c_?GOD??'
(ttp445
a(S'F?___WA@C?'
(ttp446
a(S'F?_?@HQC@?'
(ttp447
a(S'F?`?@?CH??'
(ttp448
a(S'F?_?QCoC@?'
(ttp449
a(S'F@@?GCOGB?'
(ttp450
a(S'F@@@?CA?@?'
(ttp451
a(S'F?a?OG_D??'
(ttp452
a(S'F?__?KoCA?'
(ttp453
a(S'FC??GD?OB?'
(ttp454
a(S'FAAO??AO@?'
(ttp455
a(S'FAaOG??O@?'
(ttp456
a(S'F???AEAKH?'
(ttp457
a(S'F???H@@?F?'
(ttp458
a(S'F?_OAICPE?'
(ttp459
a(S'F?__bCOGB?'
(ttp460
a(S'F@?PGO_C@?'
(ttp461
a(S'F?_?`@AG@?'
(ttp462
a(S'F???IEOS@?'
(ttp463
a(S'F@?O@OACD?'
(ttp464
a(S'F?__GGo@A?'
(ttp465
a(S'F?__@CS@A?'
(ttp466
a(S'F?_OH@@?F?'
(ttp467
a(S'FC_OG?__B?'
(ttp468
a(S'FC_?G@?OB?'
(ttp469
a(S'F?__P@?L??'
(ttp470
a(S'F@??@@?@E?'
(ttp471
a(S'F???@DBK@?'
(ttp472
a(S'F?_?OHQCG?'
(ttp473
a(S'F?_?ODaK@?'
(ttp474
a(S'F?_?GPAW@?'
(ttp475
a(S'F@??@CS@Q?'
(ttp476
a(S'F???GDPS@?'
(ttp477
a(S'F?_?@HC@E?'
(ttp478
a(S'F?`?GGQS@?'
(ttp479
a(S'F??O?JCPE?'
(ttp480
a(S'F@??GGo@Q?'
(ttp481
a(S'F@@?u?A@K?'
(ttp482
a(S'F@?Oa?AKH?'
(ttp483
a(S'F??_cWA@[?'
(ttp484
a(S'FBA`_CA@w?'
(ttp485
a(S'F??OH@@?F?'
(ttp486
a(S'F?`?OGO@I?'
(ttp487
a(S'F?_?QGaCC?'
(ttp488
a(S'F??_`CS@q?'
(ttp489
a(S'F??OQ?aK`?'
(ttp490
a(S'F?__OO_@C?'
(ttp491
a(S'F??@?G`@Q?'
(ttp492
a(S'F?_OHHC@E?'
(ttp493
a(S'F?__PDAK@?'
(ttp494
a(S'F?_OaGCPE?'
(ttp495
a(S'FA@CSGA@K?'
(ttp496
a(S'F?__?OcHQ?'
(ttp497
a(S'F?__pEOGQ?'
(ttp498
a(S'F?_SC?CWA?'
(ttp499
a(S'F?_?OHO@I?'
(ttp500
a(S'F??O?QAgH?'
(ttp501
a(S'F?_?cGCPU?'
(ttp502
a(S'F?__`CS@Q?'
(ttp503
a(S'F?_?GO_g@?'
(ttp504
a(S'F?_OH@@K@?'
(ttp505
a(S'F?_OQ?aK@?'
(ttp506
a(S'F??__WA@{?'
(ttp507
a(S'F?_OP@C@E?'
(ttp508
a(S'F?_OH@?K@?'
(ttp509
a(S'F?_OAIC@M?'
(ttp510
a(S'F?__P@?@E?'
(ttp511
a(S'F??OQAS@I?'
(ttp512
a(S'F?__K@A[@?'
(ttp513
a(S'F?_OQAS@I?'
(ttp514
a(S'F??OQ?S@i?'
(ttp515
a(S'FH?OcDOGB?'
(ttp516
a(S'F?_OAA?KH?'
(ttp517
a(S'F@?OcCAkH?'
(ttp518
a(S'F?_?PAC@U?'
(ttp519
a(S'F?_OQ?S@I?'
(ttp520
a(S'F?_OQIC@M?'
(ttp521
a(S'F?__S?aKO?'
(ttp522
a(S'F?__P@O@A?'
(ttp523
a(S'F?__cWA@[?'
(ttp524
a(S'F?@?qGA@k?'
(ttp525
a(S'F?__eOEWK?'
(ttp526
a(S'F??OH@@K@?'
(ttp527
a(S'F?___WA@[?'
(ttp528
a(S'F?__c?S@W?'
(ttp529
a(S'F?_PaICPE?'
(ttp530
a(S'F??OH@PC@?'
(ttp531
a(S'F?`?qGA@K?'
(ttp532
a(S'F@?OaOC@K?'
(ttp533
a(S'F@?Oa?QCH?'
(ttp534
a(S'F@?OaOAGH?'
(ttp535
a(S'F@@?p?A@s?'
(ttp536
a(S'F@@?`CS@o?'
(ttp537
a(S'F?_OIICOE?'
(ttp538
a(S'F??OQIO@I?'
(ttp539
a(S'F??OQIACK?'
(ttp540
a(S'F?_?QI?DK?'
(ttp541
a(S'F?_`_DAKH?'
(ttp542
a(S'F??P_HDPE?'
(ttp543
a(S'F??OIIASD?'
(ttp544
a(S'F@@?JGO@E?'
(ttp545
a(S'F@@?HCOGB?'
(ttp546
a(S'FA?OHGAcD?'
(ttp547
a(S'F???QEAKH?'
(ttp548
a(S'F@??aOE@k?'
(ttp549
a(S'F@??aCS@I?'
(ttp550
a(S'F@@@oCA@G?'
(((I6
I2
t(I2
I-2
ttttp551
a(S'F@B_?Ca@O?'
(((I6
I1
t(I2
I-2
ttttp552
a(S'FF???Ca`_?'
(((I6
I0
t(I2
I-2
ttttp553
as(S'X'
I7
tp554
(lp555
(S'F?_OH@@?F?'
(((I3
I2
t(I2
I-2
tp556
t((I4
I1
tg556
t((I5
I0
tg556
tttp557
a(S'F@`PMA_oF?'
(ttp558
as.